
manager.elf:     file format elf32-littlenios2
manager.elf
architecture: nios2:r1, flags 0x00000112:
EXEC_P, HAS_SYMS, D_PAGED
start address 0x02000244

Program Header:
    LOAD off    0x00001000 vaddr 0x02000000 paddr 0x02000000 align 2**12
         filesz 0x00000020 memsz 0x00000020 flags r-x
    LOAD off    0x00001020 vaddr 0x02000020 paddr 0x02000020 align 2**12
         filesz 0x0001a958 memsz 0x0001a958 flags r-x
    LOAD off    0x0001b978 vaddr 0x0201a978 paddr 0x0201c518 align 2**12
         filesz 0x00001ba0 memsz 0x00001ba0 flags rw-
    LOAD off    0x0001e0b8 vaddr 0x0201e0b8 paddr 0x0201e0b8 align 2**12
         filesz 0x00000000 memsz 0x00000164 flags rw-

Sections:
Idx Name          Size      VMA       LMA       File off  Algn
  0 .entry        00000020  02000000  02000000  00001000  2**5
                  CONTENTS, ALLOC, LOAD, READONLY, CODE
  1 .exceptions   00000224  02000020  02000020  00001020  2**2
                  CONTENTS, ALLOC, LOAD, READONLY, CODE
  2 .text         00019d98  02000244  02000244  00001244  2**2
                  CONTENTS, ALLOC, LOAD, READONLY, CODE
  3 .rodata       0000099c  02019fdc  02019fdc  0001afdc  2**2
                  CONTENTS, ALLOC, LOAD, READONLY, DATA
  4 .rwdata       00001ba0  0201a978  0201c518  0001b978  2**2
                  CONTENTS, ALLOC, LOAD, DATA, SMALL_DATA
  5 .bss          00000164  0201e0b8  0201e0b8  0001e0b8  2**2
                  ALLOC, SMALL_DATA
  6 .sdram        00000000  0201e21c  0201e21c  0001d518  2**0
                  CONTENTS
  7 .shared_ocm   00000000  04001000  04001000  0001d518  2**0
                  CONTENTS
  8 .comment      00000023  00000000  00000000  0001d518  2**0
                  CONTENTS, READONLY
  9 .debug_aranges 000014a8  00000000  00000000  0001d540  2**3
                  CONTENTS, READONLY, DEBUGGING
 10 .debug_info   000379b0  00000000  00000000  0001e9e8  2**0
                  CONTENTS, READONLY, DEBUGGING
 11 .debug_abbrev 0000d8e7  00000000  00000000  00056398  2**0
                  CONTENTS, READONLY, DEBUGGING
 12 .debug_line   00011bb5  00000000  00000000  00063c7f  2**0
                  CONTENTS, READONLY, DEBUGGING
 13 .debug_frame  00002f50  00000000  00000000  00075834  2**2
                  CONTENTS, READONLY, DEBUGGING
 14 .debug_str    00004960  00000000  00000000  00078784  2**0
                  CONTENTS, READONLY, DEBUGGING
 15 .debug_loc    00025a3c  00000000  00000000  0007d0e4  2**0
                  CONTENTS, READONLY, DEBUGGING
 16 .debug_alt_sim_info 00000060  00000000  00000000  000a2b20  2**2
                  CONTENTS, READONLY, DEBUGGING
 17 .debug_ranges 00002180  00000000  00000000  000a2b80  2**3
                  CONTENTS, READONLY, DEBUGGING
 18 .thread_model 00000003  00000000  00000000  000a8e76  2**0
                  CONTENTS, READONLY
 19 .cpu          00000007  00000000  00000000  000a8e79  2**0
                  CONTENTS, READONLY
 20 .qsys         00000001  00000000  00000000  000a8e80  2**0
                  CONTENTS, READONLY
 21 .simulation_enabled 00000001  00000000  00000000  000a8e81  2**0
                  CONTENTS, READONLY
 22 .stderr_dev   00000011  00000000  00000000  000a8e82  2**0
                  CONTENTS, READONLY
 23 .stdin_dev    00000011  00000000  00000000  000a8e93  2**0
                  CONTENTS, READONLY
 24 .stdout_dev   00000011  00000000  00000000  000a8ea4  2**0
                  CONTENTS, READONLY
 25 .sopc_system_name 00000006  00000000  00000000  000a8eb5  2**0
                  CONTENTS, READONLY
 26 .quartus_project_dir 0000002b  00000000  00000000  000a8ebb  2**0
                  CONTENTS, READONLY
 27 .jdi          0001a980  00000000  00000000  000a8ee6  2**0
                  CONTENTS, READONLY
 28 .sopcinfo     00117389  00000000  00000000  000c3866  2**0
                  CONTENTS, READONLY
SYMBOL TABLE:
02000000 l    d  .entry	00000000 .entry
02000020 l    d  .exceptions	00000000 .exceptions
02000244 l    d  .text	00000000 .text
02019fdc l    d  .rodata	00000000 .rodata
0201a978 l    d  .rwdata	00000000 .rwdata
0201e0b8 l    d  .bss	00000000 .bss
0201e21c l    d  .sdram	00000000 .sdram
04001000 l    d  .shared_ocm	00000000 .shared_ocm
00000000 l    d  .comment	00000000 .comment
00000000 l    d  .debug_aranges	00000000 .debug_aranges
00000000 l    d  .debug_info	00000000 .debug_info
00000000 l    d  .debug_abbrev	00000000 .debug_abbrev
00000000 l    d  .debug_line	00000000 .debug_line
00000000 l    d  .debug_frame	00000000 .debug_frame
00000000 l    d  .debug_str	00000000 .debug_str
00000000 l    d  .debug_loc	00000000 .debug_loc
00000000 l    d  .debug_alt_sim_info	00000000 .debug_alt_sim_info
00000000 l    d  .debug_ranges	00000000 .debug_ranges
00000000 l    df *ABS*	00000000 ../manager_bsp//obj/HAL/src/crt0.o
0200028c l       .text	00000000 alt_after_alt_main
00000000 l    df *ABS*	00000000 alt_irq_handler.c
00000000 l    df *ABS*	00000000 alt_instruction_exception_entry.c
00000000 l    df *ABS*	00000000 hello_world.c
00000000 l    df *ABS*	00000000 fclose.c
00000000 l    df *ABS*	00000000 fflush.c
00000000 l    df *ABS*	00000000 findfp.c
02000f0c l     F .text	00000008 __fp_unlock
02000f20 l     F .text	0000019c __sinit.part.1
020010bc l     F .text	00000008 __fp_lock
00000000 l    df *ABS*	00000000 fopen.c
00000000 l    df *ABS*	00000000 fread.c
00000000 l    df *ABS*	00000000 mallocr.c
00000000 l    df *ABS*	00000000 fseek.c
00000000 l    df *ABS*	00000000 fseeko.c
00000000 l    df *ABS*	00000000 fstatr.c
00000000 l    df *ABS*	00000000 fwalk.c
00000000 l    df *ABS*	00000000 fwrite.c
00000000 l    df *ABS*	00000000 impure.c
0201a978 l     O .rwdata	00000424 impure_data
00000000 l    df *ABS*	00000000 int_errno.c
00000000 l    df *ABS*	00000000 makebuf.c
00000000 l    df *ABS*	00000000 mallocr.c
00000000 l    df *ABS*	00000000 memcpy.c
00000000 l    df *ABS*	00000000 memset.c
00000000 l    df *ABS*	00000000 openr.c
00000000 l    df *ABS*	00000000 printf.c
00000000 l    df *ABS*	00000000 puts.c
00000000 l    df *ABS*	00000000 refill.c
02002f88 l     F .text	0000001c lflush
00000000 l    df *ABS*	00000000 sbrkr.c
00000000 l    df *ABS*	00000000 scanf.c
00000000 l    df *ABS*	00000000 snprintf.c
00000000 l    df *ABS*	00000000 stdio.c
00000000 l    df *ABS*	00000000 strlen.c
00000000 l    df *ABS*	00000000 vfprintf.c
0201a14a l     O .rodata	00000010 zeroes.4389
0201a15a l     O .rodata	00000010 blanks.4388
00000000 l    df *ABS*	00000000 vfprintf.c
0201a16a l     O .rodata	00000010 zeroes.4404
020079b4 l     F .text	000000bc __sbprintf
0201a17a l     O .rodata	00000010 blanks.4403
00000000 l    df *ABS*	00000000 vfscanf.c
0201a192 l     O .rodata	00000022 basefix.4359
00000000 l    df *ABS*	00000000 writer.c
00000000 l    df *ABS*	00000000 wsetup.c
00000000 l    df *ABS*	00000000 closer.c
00000000 l    df *ABS*	00000000 ctype_.c
0201a2b5 l     O .rodata	00000180 _ctype_b
00000000 l    df *ABS*	00000000 dtoa.c
02009504 l     F .text	00000200 quorem
00000000 l    df *ABS*	00000000 flags.c
00000000 l    df *ABS*	00000000 fvwrite.c
00000000 l    df *ABS*	00000000 isattyr.c
00000000 l    df *ABS*	00000000 iswspace.c
00000000 l    df *ABS*	00000000 locale.c
0201b1c4 l     O .rwdata	00000020 lc_ctype_charset
0201b1a4 l     O .rwdata	00000020 lc_message_charset
0201b1e4 l     O .rwdata	00000038 lconv
00000000 l    df *ABS*	00000000 lseekr.c
00000000 l    df *ABS*	00000000 mbrtowc.c
00000000 l    df *ABS*	00000000 mbtowc_r.c
00000000 l    df *ABS*	00000000 memchr.c
00000000 l    df *ABS*	00000000 memmove.c
00000000 l    df *ABS*	00000000 mprec.c
0201a454 l     O .rodata	0000000c p05.2768
00000000 l    df *ABS*	00000000 readr.c
00000000 l    df *ABS*	00000000 mallocr.c
00000000 l    df *ABS*	00000000 s_fpclassify.c
00000000 l    df *ABS*	00000000 sccl.c
00000000 l    df *ABS*	00000000 sf_nan.c
00000000 l    df *ABS*	00000000 sprintf.c
00000000 l    df *ABS*	00000000 strcmp.c
00000000 l    df *ABS*	00000000 strtod.c
0200d1c4 l     F .text	00000064 sulp
0201a59c l     O .rodata	00000014 fpi.2737
0201a5b0 l     O .rodata	00000028 tinytens
0201a588 l     O .rodata	00000014 fpinan.2773
00000000 l    df *ABS*	00000000 strtol.c
00000000 l    df *ABS*	00000000 strtoll_r.c
00000000 l    df *ABS*	00000000 strtoul.c
00000000 l    df *ABS*	00000000 strtoull_r.c
00000000 l    df *ABS*	00000000 vfprintf.c
0201a5e8 l     O .rodata	00000010 blanks.4332
0201a5d8 l     O .rodata	00000010 zeroes.4333
00000000 l    df *ABS*	00000000 ungetc.c
00000000 l    df *ABS*	00000000 vfprintf.c
02010aa4 l     F .text	000000fc __sprint_r.part.0
0201a608 l     O .rodata	00000010 blanks.4348
0201a5f8 l     O .rodata	00000010 zeroes.4349
02012030 l     F .text	000000bc __sbprintf
00000000 l    df *ABS*	00000000 mallocr.c
00000000 l    df *ABS*	00000000 fputwc.c
00000000 l    df *ABS*	00000000 gdtoa-gethex.c
020123b8 l     F .text	00000100 rshift
00000000 l    df *ABS*	00000000 gdtoa-hexnan.c
00000000 l    df *ABS*	00000000 strncmp.c
00000000 l    df *ABS*	00000000 wbuf.c
00000000 l    df *ABS*	00000000 wcrtomb.c
00000000 l    df *ABS*	00000000 wctomb_r.c
00000000 l    df *ABS*	00000000 libgcc2.c
00000000 l    df *ABS*	00000000 libgcc2.c
00000000 l    df *ABS*	00000000 libgcc2.c
00000000 l    df *ABS*	00000000 libgcc2.c
00000000 l    df *ABS*	00000000 lib2-divmod.c
00000000 l    df *ABS*	00000000 eqsf2.c
00000000 l    df *ABS*	00000000 gesf2.c
00000000 l    df *ABS*	00000000 lesf2.c
00000000 l    df *ABS*	00000000 adddf3.c
00000000 l    df *ABS*	00000000 divdf3.c
00000000 l    df *ABS*	00000000 eqdf2.c
00000000 l    df *ABS*	00000000 gedf2.c
00000000 l    df *ABS*	00000000 ledf2.c
00000000 l    df *ABS*	00000000 muldf3.c
00000000 l    df *ABS*	00000000 subdf3.c
00000000 l    df *ABS*	00000000 fixdfsi.c
00000000 l    df *ABS*	00000000 floatsidf.c
00000000 l    df *ABS*	00000000 floatunsidf.c
00000000 l    df *ABS*	00000000 truncdfsf2.c
00000000 l    df *ABS*	00000000 libgcc2.c
00000000 l    df *ABS*	00000000 libgcc2.c
00000000 l    df *ABS*	00000000 alt_close.c
02016a98 l     F .text	0000003c alt_get_errno
00000000 l    df *ABS*	00000000 alt_dev.c
02016ba4 l     F .text	0000002c alt_dev_null_write
00000000 l    df *ABS*	00000000 alt_errno.c
00000000 l    df *ABS*	00000000 alt_fstat.c
02016bd0 l     F .text	0000003c alt_get_errno
00000000 l    df *ABS*	00000000 alt_isatty.c
02016cbc l     F .text	0000003c alt_get_errno
00000000 l    df *ABS*	00000000 alt_load.c
02016d9c l     F .text	00000068 alt_load_section
00000000 l    df *ABS*	00000000 alt_lseek.c
02016e88 l     F .text	0000003c alt_get_errno
00000000 l    df *ABS*	00000000 alt_main.c
00000000 l    df *ABS*	00000000 alt_malloc_lock.c
00000000 l    df *ABS*	00000000 alt_open.c
0201705c l     F .text	0000003c alt_get_errno
02017098 l     F .text	000000c4 alt_file_locked
00000000 l    df *ABS*	00000000 alt_read.c
020172b0 l     F .text	0000003c alt_get_errno
00000000 l    df *ABS*	00000000 alt_release_fd.c
00000000 l    df *ABS*	00000000 alt_sbrk.c
0201c4b8 l     O .rwdata	00000004 heap_end
00000000 l    df *ABS*	00000000 alt_usleep.c
00000000 l    df *ABS*	00000000 alt_write.c
0201752c l     F .text	0000003c alt_get_errno
00000000 l    df *ABS*	00000000 alt_sys_init.c
02017660 l     F .text	00000034 alt_dev_reg
02017694 l     F .text	0000003c alt_get_errno
020176d0 l     F .text	00000068 alt_avalon_mutex_reg
0201b3c4 l     O .rwdata	00001060 manager_jtag_uart
0201c424 l     O .rwdata	00000010 shared_ocm_mutex
0201c434 l     O .rwdata	00000028 altera_hostfs
00000000 l    df *ABS*	00000000 altera_avalon_jtag_uart_fd.c
00000000 l    df *ABS*	00000000 altera_avalon_jtag_uart_init.c
02017a04 l     F .text	0000020c altera_avalon_jtag_uart_irq
02017c10 l     F .text	000000a0 altera_avalon_jtag_uart_timeout
00000000 l    df *ABS*	00000000 altera_avalon_jtag_uart_ioctl.c
00000000 l    df *ABS*	00000000 altera_avalon_jtag_uart_read.c
00000000 l    df *ABS*	00000000 altera_avalon_jtag_uart_write.c
00000000 l    df *ABS*	00000000 altera_avalon_mutex.c
02018248 l     F .text	0000003c alt_get_errno
02018284 l     F .text	0000007c alt_mutex_trylock
00000000 l    df *ABS*	00000000 altera_avalon_performance_counter.c
00000000 l    df *ABS*	00000000 altera_hostfs.c
0201c4c4 l     O .rwdata	00000009 hcinfo.2538
0201c4d0 l     O .rwdata	0000000a hcinfo.2551
0201c4dc l     O .rwdata	00000009 hcinfo.2560
0201c4e8 l     O .rwdata	0000000a hcinfo.2573
0201c4f4 l     O .rwdata	0000000a hcinfo.2586
0201c500 l     O .rwdata	0000000a hcinfo.2612
00000000 l    df *ABS*	00000000 perf_print_formatted_report.c
00000000 l    df *ABS*	00000000 alt_alarm_start.c
00000000 l    df *ABS*	00000000 alt_busy_sleep.c
00000000 l    df *ABS*	00000000 alt_dcache_flush_all.c
00000000 l    df *ABS*	00000000 alt_dev_llist_insert.c
02019074 l     F .text	0000003c alt_get_errno
00000000 l    df *ABS*	00000000 alt_do_ctors.c
00000000 l    df *ABS*	00000000 alt_do_dtors.c
00000000 l    df *ABS*	00000000 alt_find_dev.c
00000000 l    df *ABS*	00000000 alt_find_file.c
00000000 l    df *ABS*	00000000 alt_fs_reg.c
00000000 l    df *ABS*	00000000 alt_get_fd.c
00000000 l    df *ABS*	00000000 alt_icache_flush_all.c
00000000 l    df *ABS*	00000000 alt_iic.c
00000000 l    df *ABS*	00000000 alt_iic_isr_register.c
00000000 l    df *ABS*	00000000 alt_io_redirect.c
020197a4 l     F .text	000000c4 alt_open_fd
00000000 l    df *ABS*	00000000 alt_irq_vars.c
00000000 l    df *ABS*	00000000 alt_tick.c
00000000 l    df *ABS*	00000000 altera_nios2_gen2_irq.c
00000000 l    df *ABS*	00000000 alt_icache_flush.c
00000000 l    df *ABS*	00000000 atexit.c
00000000 l    df *ABS*	00000000 exit.c
00000000 l    df *ABS*	00000000 memcmp.c
00000000 l    df *ABS*	00000000 __atexit.c
00000000 l    df *ABS*	00000000 __call_atexit.c
00000000 l    df *ABS*	00000000 libgcc2.c
00000000 l    df *ABS*	00000000 alt_exit.c
0201e0f0 g     O .bss	00000004 alt_instruction_exception_handler
0200c79c g     F .text	00000074 _mprec_log10
0200c888 g     F .text	0000008c __any_on
0200b2f4 g     F .text	00000054 _isatty_r
0201a460 g     O .rodata	00000028 __mprec_tinytens
02016f98 g     F .text	0000007c alt_main
02002eb4 g     F .text	000000c0 _puts_r
0201e11c g     O .bss	00000100 alt_irq
0200b454 g     F .text	00000060 _lseek_r
0201c518 g       *ABS*	00000000 __flash_rwdata_start
0200ad8c g     F .text	000000ac __sflags
0201541c g     F .text	00000088 .hidden __eqdf2
0201e21c g       *ABS*	00000000 __alt_heap_start
02002e78 g     F .text	0000003c printf
0201316c g     F .text	0000009c _wcrtomb_r
020034cc g     F .text	0000005c __sseek
0200125c g     F .text	00000010 __sinit
02018680 g     F .text	00000024 alt_get_cpu_freq
02013014 g     F .text	00000140 __swbuf_r
0200b378 g     F .text	0000007c _setlocale_r
020010c4 g     F .text	00000068 __sfmoreglue
02010a8c g     F .text	00000018 ungetc
02017038 g     F .text	00000024 __malloc_unlock
020186a4 g     F .text	0000011c alt_hostfs_open
0200d228 g     F .text	000015f8 _strtod_r
0200b7bc g     F .text	0000015c memmove
02018b28 g     F .text	00000280 perf_print_formatted_report
02001244 g     F .text	00000018 _cleanup
0201c468 g     O .rwdata	00000004 c_y
02003310 g     F .text	000000e4 snprintf
020183bc g     F .text	00000040 altera_avalon_mutex_trylock
0200b918 g     F .text	000000a8 _Balloc
020154a4 g     F .text	000000dc .hidden __gtdf2
02019a88 g     F .text	00000024 altera_nios2_gen2_irq_init
02000000 g     F .entry	0000001c __reset
02018450 g     F .text	00000074 altera_avalon_mutex_is_mine
02000020 g       *ABS*	00000000 __flash_exceptions_start
02001ecc g     F .text	0000005c _fstat_r
0201e0bc g     O .bss	00000004 errno
02009294 g     F .text	0000001c __svfscanf
02003448 g     F .text	00000008 __seofread
0200f5e8 g     F .text	0000123c ___svfiprintf_internal_r
0201e0dc g     O .bss	00000004 alt_argv
0202445c g       *ABS*	00000000 _gp
020174fc g     F .text	00000030 usleep
0201b244 g     O .rwdata	00000180 alt_fd_list
020188dc g     F .text	00000068 alt_hostfs_seek
02019214 g     F .text	00000090 alt_find_dev
02002b78 g     F .text	00000148 memcpy
02012ce8 g     F .text	0000025c __hexnan
02000f14 g     F .text	0000000c _cleanup_r
02016708 g     F .text	000000dc .hidden __floatsidf
020193ac g     F .text	00000080 alt_fs_reg
02019868 g     F .text	0000007c alt_io_redirect
02015580 g     F .text	000000f4 .hidden __ltdf2
02019fdc g       *ABS*	00000000 __DTOR_END__
02002f74 g     F .text	00000014 puts
02019b3c g     F .text	0000009c alt_exception_cause_generated_bad_addr
0200b560 g     F .text	000000d8 mbrtowc
0200ced8 g     F .text	00000074 __fpclassifyd
020092b0 g     F .text	0000004c _vfscanf_r
0200c6f8 g     F .text	000000a4 __ratio
02012014 g     F .text	0000001c __vfiprintf_internal
02017e08 g     F .text	0000021c altera_avalon_jtag_uart_read
02002e48 g     F .text	00000030 _printf_r
02013fd0 g     F .text	00000064 .hidden __udivsi3
02016cf8 g     F .text	000000a4 isatty
0200b348 g     F .text	00000030 iswspace
0201a4b0 g     O .rodata	000000c8 __mprec_tens
0201c46c g     O .rwdata	00000004 matrix1
0200b3f4 g     F .text	0000000c __locale_charset
020141c0 g     F .text	000000c8 .hidden __lesf2
020133b4 g     F .text	00000074 .hidden __fixunsdfsi
02019aac g     F .text	00000090 alt_icache_flush
0201e0c8 g     O .bss	00000004 __malloc_top_pad
0201861c g     F .text	00000040 perf_get_num_starts
0200f0dc g     F .text	0000001c strtoul
0201c494 g     O .rwdata	00000004 __mb_cur_max
0200b424 g     F .text	0000000c _localeconv_r
0200f0f8 g     F .text	00000320 _strtoull_r
0200bd24 g     F .text	0000003c __i2b
0200ae38 g     F .text	000004bc __sfvwrite_r
02003178 g     F .text	00000054 _sbrk_r
02018804 g     F .text	0000006c alt_hostfs_read
0200c914 g     F .text	00000060 _read_r
0201c4b0 g     O .rwdata	00000004 alt_max_fd
02000b60 g     F .text	000000f0 _fclose_r
02000edc g     F .text	00000030 fflush
0201e0c4 g     O .bss	00000004 __malloc_max_sbrked_mem
02014288 g     F .text	000008ac .hidden __adddf3
0201408c g     F .text	00000078 .hidden __nesf2
0200c4a0 g     F .text	0000010c __b2d
020139a0 g     F .text	00000538 .hidden __umoddi3
02016ec4 g     F .text	000000d4 lseek
020184c4 g     F .text	00000050 altera_avalon_mutex_first_lock
0201c480 g     O .rwdata	00000004 _global_impure_ptr
0200c974 g     F .text	00000564 _realloc_r
0201e21c g       *ABS*	00000000 __bss_end
020196b4 g     F .text	000000f0 alt_iic_isr_register
02019980 g     F .text	00000108 alt_tick
0201a618 g     O .rodata	00000100 __hexdig
02013428 g     F .text	00000578 .hidden __udivdi3
02012314 g     F .text	00000024 _fputwc_r
0201a488 g     O .rodata	00000028 __mprec_bigtens
0200bb08 g     F .text	00000104 __s2b
020167e4 g     F .text	000000a8 .hidden __floatunsidf
0200c1e0 g     F .text	00000060 __mcmp
0200127c g     F .text	00000018 __fp_lock_all
02019668 g     F .text	0000004c alt_ic_irq_enabled
020198e4 g     F .text	0000009c alt_alarm_stop
0200eb70 g     F .text	0000001c strtol
0201e0e4 g     O .bss	00000004 alt_irq_active
02001a6c g     F .text	00000444 _fseeko_r
020187c0 g     F .text	00000044 alt_hostfs_close
020000fc g     F .exceptions	000000d4 alt_irq_handler
0201b21c g     O .rwdata	00000028 alt_dev_null
02018300 g     F .text	00000054 altera_avalon_mutex_open
0201902c g     F .text	00000048 alt_dcache_flush_all
0200bc0c g     F .text	00000068 __hi0bits
02016688 g     F .text	00000080 .hidden __fixdfsi
0200e820 g     F .text	00000018 strtod
0201c518 g       *ABS*	00000000 __ram_rwdata_end
0201c4a8 g     O .rwdata	00000008 alt_dev_list
02017568 g     F .text	000000f8 write
02014104 g     F .text	000000bc .hidden __gtsf2
0201c4bc g     O .rwdata	00000008 alt_mutex_list
0201a978 g       *ABS*	00000000 __ram_rodata_end
02016c0c g     F .text	000000b0 fstat
02015580 g     F .text	000000f4 .hidden __ledf2
0200bf58 g     F .text	00000140 __pow5mult
02010bb8 g     F .text	0000145c ___vfiprintf_internal_r
0201e0d4 g     O .bss	00000004 __nlocale_changed
02014034 g     F .text	00000058 .hidden __umodsi3
02003208 g     F .text	00000030 _scanf_r
0201e21c g       *ABS*	00000000 end
02001eb0 g     F .text	0000001c fseeko
02001a50 g     F .text	0000001c fseek
02017944 g     F .text	000000c0 altera_avalon_jtag_uart_init
020001d0 g     F .exceptions	00000074 alt_instruction_exception_entry
02019fdc g       *ABS*	00000000 __CTOR_LIST__
02100000 g       *ABS*	00000000 __alt_stack_pointer
02016a34 g     F .text	00000064 .hidden __clzsi2
02003238 g     F .text	000000d8 _snprintf_r
02018024 g     F .text	00000224 altera_avalon_jtag_uart_write
0200126c g     F .text	00000004 __sfp_lock_acquire
0200b6d8 g     F .text	000000e4 memchr
020057a0 g     F .text	000021f8 ___vfprintf_internal_r
0200d024 g     F .text	00000058 _sprintf_r
0200173c g     F .text	00000310 _free_r
0200b400 g     F .text	00000010 __locale_mb_cur_max
02019db8 g     F .text	00000180 __call_exitprocs
0201e0d0 g     O .bss	00000004 __mlocale_changed
0201c488 g     O .rwdata	00000004 __malloc_sbrk_base
02000244 g     F .text	0000004c _start
0201e0e8 g     O .bss	00000004 _alt_tick_rate
0200eb8c g     F .text	00000304 _strtoll_r
02019f38 g     F .text	00000070 .hidden __floatundidf
0200c098 g     F .text	00000148 __lshift
0201e0ec g     O .bss	00000004 _alt_nticks
020172ec g     F .text	000000fc read
02017770 g     F .text	00000070 alt_sys_init
0200f418 g     F .text	000001d0 __ssprint_r
02002de8 g     F .text	00000060 _open_r
02019ca0 g     F .text	00000118 __register_exitproc
02012f44 g     F .text	000000d0 strncmp
020183fc g     F .text	00000054 altera_avalon_mutex_unlock
0200bd60 g     F .text	000001f8 __multiply
02017cb0 g     F .text	00000068 altera_avalon_jtag_uart_close
0201a978 g       *ABS*	00000000 __ram_rwdata_start
02019fdc g       *ABS*	00000000 __ram_rodata_start
0201e0f4 g     O .bss	00000028 __malloc_current_mallinfo
0201408c g     F .text	00000078 .hidden __eqsf2
0200c5ac g     F .text	0000014c __d2b
020177e0 g     F .text	00000060 altera_avalon_jtag_uart_read_fd
0200ee90 g     F .text	0000024c _strtoul_r
0201942c g     F .text	000000a4 alt_get_fd
02018ed4 g     F .text	00000158 alt_busy_sleep
020094b0 g     F .text	00000054 _close_r
02018514 g     F .text	000000bc perf_get_section_time
02019c24 g     F .text	0000007c memcmp
020178a0 g     F .text	00000050 altera_avalon_jtag_uart_close_fd
0201e21c g       *ABS*	00000000 __alt_stack_base
020178f0 g     F .text	00000054 altera_avalon_jtag_uart_ioctl_fd
020020b0 g     F .text	000000cc _fwrite_r
0200935c g     F .text	00000154 __swsetup_r
02014b34 g     F .text	000008e8 .hidden __divdf3
0200112c g     F .text	00000118 __sfp
0200c810 g     F .text	00000078 __copybits
020185d0 g     F .text	0000004c perf_get_total_time
0201ad9c g     O .rwdata	00000408 __malloc_av_
02001278 g     F .text	00000004 __sinit_lock_release
02015674 g     F .text	00000718 .hidden __muldf3
020033f4 g     F .text	00000054 __sread
020015e4 g     F .text	00000034 fread
020192a4 g     F .text	00000108 alt_find_file
020190b0 g     F .text	000000a4 alt_dev_llist_insert
02017014 g     F .text	00000024 __malloc_lock
0201744c g     F .text	000000b0 sbrk
020035c8 g     F .text	000021d8 ___svfprintf_internal_r
02000e80 g     F .text	0000005c _fflush_r
020120ec g     F .text	000000c4 _calloc_r
020013a0 g     F .text	00000018 fopen
0201e0b8 g       *ABS*	00000000 __bss_start
02002cc0 g     F .text	00000128 memset
020002e8 g     F .text	00000878 main
0201e0e0 g     O .bss	00000004 alt_envp
0201e0c0 g     O .bss	00000004 __malloc_max_total_mem
02017840 g     F .text	00000060 altera_avalon_jtag_uart_write_fd
02013154 g     F .text	00000018 __swbuf
020141c0 g     F .text	000000c8 .hidden __ltsf2
020013b8 g     F .text	0000022c _fread_r
04001000 g       *ABS*	00000000 __alt_mem_shared_ocm
02003528 g     F .text	00000008 __sclose
02100000 g       *ABS*	00000000 __alt_heap_limit
02000c50 g     F .text	00000014 fclose
0200e938 g     F .text	00000238 _strtol_r
0201688c g     F .text	000001a8 .hidden __truncdfsf2
02018378 g     F .text	00000044 altera_avalon_mutex_lock
02009704 g     F .text	00001688 _dtoa_r
0200236c g     F .text	0000080c _malloc_r
020132c8 g     F .text	00000030 __ascii_wctomb
0201c4b4 g     O .rwdata	00000004 alt_errno
0201c478 g     O .rwdata	00000004 heat_srcs
02010824 g     F .text	000000d4 __submore
02001f28 g     F .text	000000c4 _fwalk
0200b67c g     F .text	0000005c _mbtowc_r
02013ed8 g     F .text	00000084 .hidden __divsi3
02001618 g     F .text	00000124 _malloc_trim_r
02019fdc g       *ABS*	00000000 __CTOR_END__
0200d0e8 g     F .text	000000dc strcmp
02019fdc g       *ABS*	00000000 __flash_rodata_start
02019fdc g       *ABS*	00000000 __DTOR_LIST__
0201c474 g     O .rwdata	00000004 nr_heat_src
0201541c g     F .text	00000088 .hidden __nedf2
02017738 g     F .text	00000038 alt_irq_init
020173e8 g     F .text	00000064 alt_release_fd
0200d07c g     F .text	0000006c sprintf
0201a718 g     O .rodata	00000100 .hidden __clz_tab
0201e0cc g     O .bss	00000004 _PathLocale
0200e838 g     F .text	00000100 strtof
02019bd8 g     F .text	00000014 atexit
02014104 g     F .text	000000bc .hidden __gesf2
020092fc g     F .text	00000060 _write_r
0200b430 g     F .text	00000018 setlocale
020031cc g     F .text	0000003c scanf
0201c47c g     O .rwdata	00000004 descriptors
0200d01c g     F .text	00000008 nanf
0201c484 g     O .rwdata	00000004 _impure_ptr
0201e0d8 g     O .bss	00000004 alt_argc
02000c64 g     F .text	0000021c __sflush_r
0200b4b4 g     F .text	000000ac _mbrtowc_r
020191b4 g     F .text	00000060 _do_dtors
0200b41c g     F .text	00000008 __locale_cjk_lang
02001a4c g     F .text	00000004 _fseek_r
02002fa4 g     F .text	000001d4 __srefill_r
02000020 g       .exceptions	00000000 alt_irq_entry
0200b638 g     F .text	00000044 __ascii_mbtowc
0200c43c g     F .text	00000064 __ulp
02001294 g     F .text	00000018 __fp_unlock_all
0201c4a0 g     O .rwdata	00000008 alt_fs_list
02018870 g     F .text	0000006c alt_hostfs_write
0201c464 g     O .rwdata	00000004 c_x
02000020 g       *ABS*	00000000 __ram_exceptions_start
0200b448 g     F .text	0000000c localeconv
02019504 g     F .text	00000050 alt_ic_isr_register
0200217c g     F .text	00000034 fwrite
0201c518 g       *ABS*	00000000 _edata
0201e21c g       *ABS*	00000000 _end
020121b0 g     F .text	00000164 __fputwc
02000244 g       *ABS*	00000000 __ram_exceptions_end
0200922c g     F .text	00000068 vfscanf
02017d18 g     F .text	000000f0 altera_avalon_jtag_uart_ioctl
02000290 g     F .text	00000058 _fp_mult
020195dc g     F .text	0000008c alt_ic_irq_disable
02003450 g     F .text	0000007c __swrite
0201c48c g     O .rwdata	00000004 __malloc_trim_threshold
0201865c g     F .text	00000024 alt_get_performance_counter_base
0200b410 g     F .text	0000000c __locale_msgcharset
02019bec g     F .text	00000038 exit
02001fec g     F .text	000000c4 _fwalk_reent
0200c240 g     F .text	000001fc __mdiff
02013f5c g     F .text	00000074 .hidden __modsi3
0201c490 g     O .rwdata	00000004 __ctype_ptr__
02100000 g       *ABS*	00000000 __alt_data_end
02000020 g     F .exceptions	00000000 alt_exception
02001270 g     F .text	00000004 __sfp_lock_release
02000000 g       *ABS*	00000000 __alt_mem_sdram
0200cf4c g     F .text	000000d0 __sccl
0201a1b4 g     O .rodata	00000101 _ctype_
0201c498 g     O .rwdata	00000004 __mbtowc
020012ac g     F .text	000000f4 _fopen_r
02019fa8 g     F .text	00000034 _exit
02018da8 g     F .text	0000012c alt_alarm_start
02013354 g     F .text	00000060 .hidden __muldi3
020021b0 g     F .text	000001bc __smakebuf_r
02003530 g     F .text	00000098 strlen
0201715c g     F .text	00000154 open
0201c470 g     O .rwdata	00000004 matrix2
020154a4 g     F .text	000000dc .hidden __gedf2
020124b8 g     F .text	00000830 __gethex
0201c49c g     O .rwdata	00000004 __wctomb
02010ba0 g     F .text	00000018 __sprint_r
020194d0 g     F .text	00000034 alt_icache_flush_all
0201c50c g     O .rwdata	00000004 alt_priority_mask
02019554 g     F .text	00000088 alt_ic_irq_enable
02007998 g     F .text	0000001c __vfprintf_internal
02018354 g     F .text	00000024 altera_avalon_mutex_close
020132f8 g     F .text	0000005c _wctomb_r
0201e0b8 g     O .bss	00000004 mux
02015d8c g     F .text	000008fc .hidden __subdf3
0200bc74 g     F .text	000000b0 __lo0bits
02007a70 g     F .text	000017bc __svfscanf_r
0201c510 g     O .rwdata	00000008 alt_alarm_list
020108f8 g     F .text	00000194 _ungetc_r
02019154 g     F .text	00000060 _do_ctors
0201c460 g     O .rwdata	00000004 height
02013208 g     F .text	000000c0 wcrtomb
02016ad4 g     F .text	000000d0 close
0201c45c g     O .rwdata	00000004 width
02016e04 g     F .text	00000084 alt_load
02012338 g     F .text	00000080 fputwc
02001274 g     F .text	00000004 __sinit_lock_acquire
0200b9e8 g     F .text	00000120 __multadd
0200b9c0 g     F .text	00000028 _Bfree
02018944 g     F .text	000001e4 alt_hostfs_fstat



Disassembly of section .entry:

02000000 <__reset>:
#if NIOS2_ICACHE_SIZE > 0 && defined(ALT_ALLOW_CODE_AT_RESET) && (!defined(ALT_SIM_OPTIMIZE) || defined(NIOS2_ECC_PRESENT))
    /* Assume the instruction cache size is always a power of two. */
#if NIOS2_ICACHE_SIZE > 0x8000
    movhi r2, %hi(NIOS2_ICACHE_SIZE)
#else
    movui r2, NIOS2_ICACHE_SIZE
 2000000:	00820014 	movui	r2,2048
#endif

0:
    initi r2
 2000004:	1001483a 	initi	r2
    addi r2, r2, -NIOS2_ICACHE_LINE_SIZE
 2000008:	10bff804 	addi	r2,r2,-32
    bgt r2, zero, 0b
 200000c:	00bffd16 	blt	zero,r2,2000004 <__alt_mem_shared_ocm+0xfdfff004>
 * Jump to the _start entry point in the .text section if reset code
 * is allowed or if optimizing for RTL simulation.
 */
#if defined(ALT_ALLOW_CODE_AT_RESET) || defined(ALT_SIM_OPTIMIZE)
    /* Jump to the _start entry point in the .text section. */
    movhi r1, %hi(_start)
 2000010:	00408034 	movhi	at,512
    ori r1, r1, %lo(_start)
 2000014:	08409114 	ori	at,at,580
    jmp r1
 2000018:	0800683a 	jmp	at
 200001c:	00000000 	call	0 <__alt_mem_sdram-0x2000000>

Disassembly of section .exceptions:

02000020 <alt_exception>:

#else /* ALT_EXCEPTION_STACK disabled */
        /* 
         * Reserve space on normal stack for registers about to be pushed.
         */
        addi  sp, sp, -76
 2000020:	deffed04 	addi	sp,sp,-76
         * documentation for details).
         *
         * Leave a gap in the stack frame at 4(sp) for the muldiv handler to
         * store zero into.
         */
        stw   ra,  0(sp)
 2000024:	dfc00015 	stw	ra,0(sp)
        stw   r1,   8(sp)
 2000028:	d8400215 	stw	at,8(sp)
        stw   r2,  12(sp)
 200002c:	d8800315 	stw	r2,12(sp)
        stw   r3,  16(sp)
 2000030:	d8c00415 	stw	r3,16(sp)
        stw   r4,  20(sp)
 2000034:	d9000515 	stw	r4,20(sp)
        stw   r5,  24(sp)
 2000038:	d9400615 	stw	r5,24(sp)
        stw   r6,  28(sp)
 200003c:	d9800715 	stw	r6,28(sp)
        stw   r7,  32(sp)
 2000040:	d9c00815 	stw	r7,32(sp)
        rdctl r5, estatus   /* Read early to avoid usage stall */
 2000044:	000b307a 	rdctl	r5,estatus
        stw   r8,  36(sp)
 2000048:	da000915 	stw	r8,36(sp)
        stw   r9,  40(sp)
 200004c:	da400a15 	stw	r9,40(sp)
        stw   r10, 44(sp)
 2000050:	da800b15 	stw	r10,44(sp)
        stw   r11, 48(sp)
 2000054:	dac00c15 	stw	r11,48(sp)
        stw   r12, 52(sp)
 2000058:	db000d15 	stw	r12,52(sp)
        stw   r13, 56(sp)
 200005c:	db400e15 	stw	r13,56(sp)
        stw   r14, 60(sp)
 2000060:	db800f15 	stw	r14,60(sp)
        stw   r15, 64(sp)
 2000064:	dbc01015 	stw	r15,64(sp)
        /*
         * ea-4 contains the address of the instruction being executed
         * when the exception occured. For interrupt exceptions, we will
         * will be re-issue the isntruction. Store it in 72(sp)
         */
        stw   r5,  68(sp)  /* estatus */
 2000068:	d9401115 	stw	r5,68(sp)
        addi  r15, ea, -4  /* instruction that caused exception */
 200006c:	ebffff04 	addi	r15,ea,-4
        stw   r15,  72(sp)
 2000070:	dbc01215 	stw	r15,72(sp)
#else
        /*
         * Test to see if the exception was a software exception or caused 
         * by an external interrupt, and vector accordingly.
         */
        rdctl r4, ipending
 2000074:	0009313a 	rdctl	r4,ipending
        andi  r2, r5, 1
 2000078:	2880004c 	andi	r2,r5,1
        beq   r2, zero, .Lnot_irq
 200007c:	10000326 	beq	r2,zero,200008c <alt_exception+0x6c>
        beq   r4, zero, .Lnot_irq
 2000080:	20000226 	beq	r4,zero,200008c <alt_exception+0x6c>
        /*
         * Now that all necessary registers have been preserved, call 
         * alt_irq_handler() to process the interrupts.
         */

        call alt_irq_handler
 2000084:	20000fc0 	call	20000fc <alt_irq_handler>

        .section .exceptions.irqreturn, "xa"

        br    .Lexception_exit
 2000088:	00000706 	br	20000a8 <alt_exception+0x88>
         * upon completion, so we write ea (address of instruction *after*
         * the one where the exception occured) into 72(sp). The actual
         * instruction that caused the exception is written in r2, which these
         * handlers will utilize.
         */
        stw ea, 72(sp) /* EA is PC+4 so will skip over instruction causing exception */
 200008c:	df401215 	stw	ea,72(sp)
.Lunknown_16bit:
        addi.n r4, r4, 2 /* Need PC+2 to skip over instruction causing exception */
        stw r4, 72(sp)

#else /* CDX is not Enabled and all instructions are 32bits */
        ldw r2, -4(ea) /* Instruction value that caused exception */
 2000090:	e8bfff17 	ldw	r2,-4(ea)
         * debugger is present) or go into an infinite loop since the
         * handling behavior is undefined; in that case we will not return here.
         */

        /* Load exception-causing address as first argument (r4) */
        addi   r4, ea, -4
 2000094:	e93fff04 	addi	r4,ea,-4

        /* Call the instruction-exception entry */
        call   alt_instruction_exception_entry
 2000098:	20001d00 	call	20001d0 <alt_instruction_exception_entry>
         * instruction
         *
         * Return code was 0: Skip. The instruction after the exception is
         * already stored in 72(sp).
         */
        bne   r2, r0, .Lexception_exit
 200009c:	1000021e 	bne	r2,zero,20000a8 <alt_exception+0x88>

        /*
         * Otherwise, modify 72(sp) to re-issue the instruction that caused the
         * exception.
         */
        addi  r15, ea, -4  /* instruction that caused exception */
 20000a0:	ebffff04 	addi	r15,ea,-4
        stw   r15,  72(sp)
 20000a4:	dbc01215 	stw	r15,72(sp)
        /* 
         * Restore the saved registers, so that all general purpose registers 
         * have been restored to their state at the time the interrupt occured.
         */

        ldw   r5,  68(sp)
 20000a8:	d9401117 	ldw	r5,68(sp)
        ldw   ea,  72(sp)  /* This becomes the PC once eret is executed */
 20000ac:	df401217 	ldw	ea,72(sp)
        ldw   ra,   0(sp)
 20000b0:	dfc00017 	ldw	ra,0(sp)

        wrctl estatus, r5
 20000b4:	2801707a 	wrctl	estatus,r5

        ldw   r1,   8(sp)
 20000b8:	d8400217 	ldw	at,8(sp)
        ldw   r2,  12(sp)
 20000bc:	d8800317 	ldw	r2,12(sp)
        ldw   r3,  16(sp)
 20000c0:	d8c00417 	ldw	r3,16(sp)
        ldw   r4,  20(sp)
 20000c4:	d9000517 	ldw	r4,20(sp)
        ldw   r5,  24(sp)
 20000c8:	d9400617 	ldw	r5,24(sp)
        ldw   r6,  28(sp)
 20000cc:	d9800717 	ldw	r6,28(sp)
        ldw   r7,  32(sp)
 20000d0:	d9c00817 	ldw	r7,32(sp)

#if defined(ALT_EXCEPTION_STACK) && defined(ALT_STACK_CHECK)
        ldw   et, %gprel(alt_exception_old_stack_limit)(gp)
#endif

        ldw   r8,  36(sp)
 20000d4:	da000917 	ldw	r8,36(sp)
        ldw   r9,  40(sp)
 20000d8:	da400a17 	ldw	r9,40(sp)
        ldw   r10, 44(sp)
 20000dc:	da800b17 	ldw	r10,44(sp)
        ldw   r11, 48(sp)
 20000e0:	dac00c17 	ldw	r11,48(sp)
        ldw   r12, 52(sp)
 20000e4:	db000d17 	ldw	r12,52(sp)
        ldw   r13, 56(sp)
 20000e8:	db400e17 	ldw	r13,56(sp)
        ldw   r14, 60(sp)
 20000ec:	db800f17 	ldw	r14,60(sp)
        ldw   r15, 64(sp)
 20000f0:	dbc01017 	ldw	r15,64(sp)
        stw   et, %gprel(alt_stack_limit_value)(gp)
        stw   zero, %gprel(alt_exception_old_stack_limit)(gp)
#endif /* ALT_STACK_CHECK */
        ldw   sp,  76(sp)
#else /* ALT_EXCEPTION_STACK disabled */
        addi  sp, sp, 76
 20000f4:	dec01304 	addi	sp,sp,76

        /*
         * Return to the interrupted instruction.
         */

        eret
 20000f8:	ef80083a 	eret

020000fc <alt_irq_handler>:
 * instruction is present if the macro ALT_CI_INTERRUPT_VECTOR defined.
 */

void alt_irq_handler (void) __attribute__ ((section (".exceptions")));
void alt_irq_handler (void)
{
 20000fc:	defff904 	addi	sp,sp,-28
 2000100:	dfc00615 	stw	ra,24(sp)
 2000104:	df000515 	stw	fp,20(sp)
 2000108:	df000504 	addi	fp,sp,20
  
  /*
   * Notify the operating system that we are at interrupt level.
   */ 
  
  ALT_OS_INT_ENTER();
 200010c:	0001883a 	nop
#ifndef NIOS2_EIC_PRESENT
static ALT_INLINE alt_u32 ALT_ALWAYS_INLINE alt_irq_pending (void)
{
  alt_u32 active;

  NIOS2_READ_IPENDING (active);
 2000110:	0005313a 	rdctl	r2,ipending
 2000114:	e0bffe15 	stw	r2,-8(fp)

  return active;
 2000118:	e0bffe17 	ldw	r2,-8(fp)
   * Consider the case where the high priority interupt is asserted during
   * the interrupt entry sequence for a lower priority interrupt to see why
   * this is the case.
   */

  active = alt_irq_pending ();
 200011c:	e0bffb15 	stw	r2,-20(fp)

  do
  {
    i = 0;
 2000120:	e03ffd15 	stw	zero,-12(fp)
    mask = 1;
 2000124:	00800044 	movi	r2,1
 2000128:	e0bffc15 	stw	r2,-16(fp)
     * called to clear the interrupt condition.
     */

    do
    {
      if (active & mask)
 200012c:	e0fffb17 	ldw	r3,-20(fp)
 2000130:	e0bffc17 	ldw	r2,-16(fp)
 2000134:	1884703a 	and	r2,r3,r2
 2000138:	10001426 	beq	r2,zero,200018c <alt_irq_handler+0x90>
      { 
#ifdef ALT_ENHANCED_INTERRUPT_API_PRESENT
        alt_irq[i].handler(alt_irq[i].context); 
 200013c:	008080b4 	movhi	r2,514
 2000140:	10b84704 	addi	r2,r2,-7908
 2000144:	e0fffd17 	ldw	r3,-12(fp)
 2000148:	180690fa 	slli	r3,r3,3
 200014c:	10c5883a 	add	r2,r2,r3
 2000150:	10c00017 	ldw	r3,0(r2)
 2000154:	008080b4 	movhi	r2,514
 2000158:	10b84704 	addi	r2,r2,-7908
 200015c:	e13ffd17 	ldw	r4,-12(fp)
 2000160:	200890fa 	slli	r4,r4,3
 2000164:	1105883a 	add	r2,r2,r4
 2000168:	10800104 	addi	r2,r2,4
 200016c:	10800017 	ldw	r2,0(r2)
 2000170:	1009883a 	mov	r4,r2
 2000174:	183ee83a 	callr	r3
#else
        alt_irq[i].handler(alt_irq[i].context, i); 
#endif
        break;
 2000178:	0001883a 	nop
#ifndef NIOS2_EIC_PRESENT
static ALT_INLINE alt_u32 ALT_ALWAYS_INLINE alt_irq_pending (void)
{
  alt_u32 active;

  NIOS2_READ_IPENDING (active);
 200017c:	0005313a 	rdctl	r2,ipending
 2000180:	e0bfff15 	stw	r2,-4(fp)

  return active;
 2000184:	e0bfff17 	ldw	r2,-4(fp)
 2000188:	00000706 	br	20001a8 <alt_irq_handler+0xac>
      }
      mask <<= 1;
 200018c:	e0bffc17 	ldw	r2,-16(fp)
 2000190:	1085883a 	add	r2,r2,r2
 2000194:	e0bffc15 	stw	r2,-16(fp)
      i++;
 2000198:	e0bffd17 	ldw	r2,-12(fp)
 200019c:	10800044 	addi	r2,r2,1
 20001a0:	e0bffd15 	stw	r2,-12(fp)

    } while (1);
 20001a4:	003fe106 	br	200012c <__alt_mem_shared_ocm+0xfdfff12c>

    active = alt_irq_pending ();
 20001a8:	e0bffb15 	stw	r2,-20(fp)
    
  } while (active);
 20001ac:	e0bffb17 	ldw	r2,-20(fp)
 20001b0:	103fdb1e 	bne	r2,zero,2000120 <__alt_mem_shared_ocm+0xfdfff120>

  /*
   * Notify the operating system that interrupt processing is complete.
   */ 

  ALT_OS_INT_EXIT();
 20001b4:	0001883a 	nop
}
 20001b8:	0001883a 	nop
 20001bc:	e037883a 	mov	sp,fp
 20001c0:	dfc00117 	ldw	ra,4(sp)
 20001c4:	df000017 	ldw	fp,0(sp)
 20001c8:	dec00204 	addi	sp,sp,8
 20001cc:	f800283a 	ret

020001d0 <alt_instruction_exception_entry>:
 * that handler if it has been registered. Absent a handler, it will
 * break break or hang as discussed below.
 */
int 
alt_instruction_exception_entry (alt_u32 exception_pc)
{
 20001d0:	defffb04 	addi	sp,sp,-20
 20001d4:	dfc00415 	stw	ra,16(sp)
 20001d8:	df000315 	stw	fp,12(sp)
 20001dc:	df000304 	addi	fp,sp,12
 20001e0:	e13fff15 	stw	r4,-4(fp)
 * NIOS2_EXCEPTION_CAUSE_NOT_PRESENT. Your handling routine should
 * check the validity of the cause argument before proceeding.
 */
#ifdef NIOS2_HAS_EXTRA_EXCEPTION_INFO
  /* Get exception cause & "badaddr" */
  NIOS2_READ_EXCEPTION(cause);
 20001e4:	000531fa 	rdctl	r2,exception
 20001e8:	e0bffd15 	stw	r2,-12(fp)
  cause = ( (cause & NIOS2_EXCEPTION_REG_CAUSE_MASK) >>
 20001ec:	e0bffd17 	ldw	r2,-12(fp)
 20001f0:	10801f0c 	andi	r2,r2,124
 20001f4:	1004d0ba 	srli	r2,r2,2
 20001f8:	e0bffd15 	stw	r2,-12(fp)
              NIOS2_EXCEPTION_REG_CAUSE_OFST );

  NIOS2_READ_BADADDR(badaddr);
 20001fc:	0005333a 	rdctl	r2,badaddr
 2000200:	e0bffe15 	stw	r2,-8(fp)
#else
  cause = NIOS2_EXCEPTION_CAUSE_NOT_PRESENT;
  badaddr = 0;
#endif /* NIOS2_HAS_EXTRA_EXCEPTION_INFO */

  if(alt_instruction_exception_handler) {
 2000204:	d0a72517 	ldw	r2,-25452(gp)
 2000208:	10000726 	beq	r2,zero,2000228 <alt_instruction_exception_entry+0x58>
     * Call handler. Its return value indicates whether the exception-causing
     * instruction should be re-issued. The code that called us,
     * alt_eceptions_entry.S, will look at this value and adjust the ea
     * register as necessary
     */
    return alt_instruction_exception_handler(cause, exception_pc, badaddr);
 200020c:	d0a72517 	ldw	r2,-25452(gp)
 2000210:	e0fffd17 	ldw	r3,-12(fp)
 2000214:	e1bffe17 	ldw	r6,-8(fp)
 2000218:	e17fff17 	ldw	r5,-4(fp)
 200021c:	1809883a 	mov	r4,r3
 2000220:	103ee83a 	callr	r2
 2000224:	00000206 	br	2000230 <alt_instruction_exception_entry+0x60>
   *    (a peripheral which negates its interrupt output before its
   *    interrupt handler has been executed will cause spurious interrupts)
   */
  else {
#ifdef NIOS2_HAS_DEBUG_STUB
    NIOS2_BREAK();
 2000228:	003da03a 	break	0
      ;
#endif /* NIOS2_HAS_DEBUG_STUB */
  }

  /* We should not get here. Remove compiler warning. */
  return NIOS2_EXCEPTION_RETURN_REISSUE_INST;
 200022c:	0005883a 	mov	r2,zero
}
 2000230:	e037883a 	mov	sp,fp
 2000234:	dfc00117 	ldw	ra,4(sp)
 2000238:	df000017 	ldw	fp,0(sp)
 200023c:	dec00204 	addi	sp,sp,8
 2000240:	f800283a 	ret

Disassembly of section .text:

02000244 <_start>:

    /* Assume the data cache size is always a power of two. */
#if NIOS2_DCACHE_SIZE > 0x8000
    movhi r2, %hi(NIOS2_DCACHE_SIZE)
#else
    movui r2, NIOS2_DCACHE_SIZE
 2000244:	00810014 	movui	r2,1024
#endif

0:
    initd 0(r2)
 2000248:	10000033 	initd	0(r2)
#ifdef NIOS2_ECC_PRESENT
    addi r2, r2, -4
#else
    addi r2, r2, -NIOS2_DCACHE_LINE_SIZE
 200024c:	10bff804 	addi	r2,r2,-32
#endif
    bgt r2, zero, 0b
 2000250:	00bffd16 	blt	zero,r2,2000248 <__alt_mem_shared_ocm+0xfdfff248>

    /*
     * Now that the caches are initialized, set up the stack pointer and global pointer.
     * The values provided by the linker are assumed to be correctly aligned.
     */
    movhi sp, %hi(__alt_stack_pointer)
 2000254:	06c08434 	movhi	sp,528
    ori sp, sp, %lo(__alt_stack_pointer)
 2000258:	dec00014 	ori	sp,sp,0
    movhi gp, %hi(_gp)
 200025c:	068080b4 	movhi	gp,514
    ori gp, gp, %lo(_gp)
 2000260:	d6911714 	ori	gp,gp,17500
 */
#ifndef ALT_SIM_OPTIMIZE
    /* Log that the BSS is about to be cleared. */
    ALT_LOG_PUTS(alt_log_msg_bss)

    movhi r2, %hi(__bss_start)
 2000264:	00808074 	movhi	r2,513
    ori r2, r2, %lo(__bss_start)
 2000268:	10b82e14 	ori	r2,r2,57528

    movhi r3, %hi(__bss_end)
 200026c:	00c08074 	movhi	r3,513
    ori r3, r3, %lo(__bss_end)
 2000270:	18f88714 	ori	r3,r3,57884

    beq r2, r3, 1f
 2000274:	10c00326 	beq	r2,r3,2000284 <_start+0x40>

0:
    stw zero, (r2)
 2000278:	10000015 	stw	zero,0(r2)
    addi r2, r2, 4
 200027c:	10800104 	addi	r2,r2,4
    bltu r2, r3, 0b
 2000280:	10fffd36 	bltu	r2,r3,2000278 <__alt_mem_shared_ocm+0xfdfff278>
     * section aren't defined until alt_load() has been called).
     */
    mov   et, zero
#endif

    call alt_load
 2000284:	2016e040 	call	2016e04 <alt_load>

    /* Log that alt_main is about to be called. */
    ALT_LOG_PUTS(alt_log_msg_alt_main)

    /* Call the C entry point. It should never return. */
    call alt_main
 2000288:	2016f980 	call	2016f98 <alt_main>

0200028c <alt_after_alt_main>:

    /* Wait in infinite loop in case alt_main does return. */
alt_after_alt_main:
    br alt_after_alt_main
 200028c:	003fff06 	br	200028c <__alt_mem_shared_ocm+0xfdfff28c>

02000290 <_fp_mult>:
/**
 * @brief Function that multiplies two Q2.14 fixed-point numbers.
 * Note: Overflow isn't included since numbers are <1
 */
int16_t _fp_mult(int16_t a, int16_t b)
{
 2000290:	defffb04 	addi	sp,sp,-20
 2000294:	df000415 	stw	fp,16(sp)
 2000298:	df000404 	addi	fp,sp,16
 200029c:	2007883a 	mov	r3,r4
 20002a0:	2805883a 	mov	r2,r5
 20002a4:	e0fffe0d 	sth	r3,-8(fp)
 20002a8:	e0bfff0d 	sth	r2,-4(fp)
    int16_t res;
    int32_t tmp;

    tmp = (int32_t)a * (int32_t)b; // result type is operand's type
 20002ac:	e0fffe0f 	ldh	r3,-8(fp)
 20002b0:	e0bfff0f 	ldh	r2,-4(fp)
 20002b4:	1885383a 	mul	r2,r3,r2
 20002b8:	e0bffc15 	stw	r2,-16(fp)
    // Rounding; mid values are rounded up
    tmp += K;
 20002bc:	e0bffc17 	ldw	r2,-16(fp)
 20002c0:	10880004 	addi	r2,r2,8192
 20002c4:	e0bffc15 	stw	r2,-16(fp)
    // Correct by dividing by base
    res = tmp >> FP_FRAC;
 20002c8:	e0bffc17 	ldw	r2,-16(fp)
 20002cc:	1005d3ba 	srai	r2,r2,14
 20002d0:	e0bffd0d 	sth	r2,-12(fp)

    return res;
 20002d4:	e0bffd0b 	ldhu	r2,-12(fp)
}
 20002d8:	e037883a 	mov	sp,fp
 20002dc:	df000017 	ldw	fp,0(sp)
 20002e0:	dec00104 	addi	sp,sp,4
 20002e4:	f800283a 	ret

020002e8 <main>:

int main()
{
 20002e8:	deffc104 	addi	sp,sp,-252
 20002ec:	dfc03e15 	stw	ra,248(sp)
 20002f0:	df003d15 	stw	fp,244(sp)
 20002f4:	df003d04 	addi	fp,sp,244
	uint32_t matrix_size;
	uint32_t iter = 0;
 20002f8:	e03fcf15 	stw	zero,-196(fp)
	char tmp[64];

	int16_t * curr;
	int16_t * next;

	mux = altera_avalon_mutex_open(SHARED_OCM_MUTEX_NAME);
 20002fc:	010080b4 	movhi	r4,514
 2000300:	2127f704 	addi	r4,r4,-24612
 2000304:	20183000 	call	2018300 <altera_avalon_mutex_open>
 2000308:	d0a71715 	stw	r2,-25508(gp)

	while (1)
	{
#ifdef MEASURE_PERFORMANCE
		PERF_RESET(PERFORMANCE_COUNTER_0_BASE);
 200030c:	00c00044 	movi	r3,1
 2000310:	00810034 	movhi	r2,1024
 2000314:	10850004 	addi	r2,r2,5120
 2000318:	10c00035 	stwio	r3,0(r2)

    	PERF_START_MEASURING(PERFORMANCE_COUNTER_0_BASE);
 200031c:	0007883a 	mov	r3,zero
 2000320:	00810034 	movhi	r2,1024
 2000324:	10850104 	addi	r2,r2,5124
 2000328:	10c00035 	stwio	r3,0(r2)
#endif /* MEASURE_PERFORMANCE */

		printf("PROGRAM START\n");
 200032c:	010080b4 	movhi	r4,514
 2000330:	2127fd04 	addi	r4,r4,-24588
 2000334:	2002f740 	call	2002f74 <puts>

		printf("Enter matrix width ");
 2000338:	010080b4 	movhi	r4,514
 200033c:	21280104 	addi	r4,r4,-24572
 2000340:	2002e780 	call	2002e78 <printf>
		scanf("%lu", width);
 2000344:	d0a00017 	ldw	r2,-32768(gp)
 2000348:	100b883a 	mov	r5,r2
 200034c:	010080b4 	movhi	r4,514
 2000350:	21280604 	addi	r4,r4,-24552
 2000354:	20031cc0 	call	20031cc <scanf>
		*width += 2;	// pad for two pixels along each side
 2000358:	d0a00017 	ldw	r2,-32768(gp)
 200035c:	d0e00017 	ldw	r3,-32768(gp)
 2000360:	18c00017 	ldw	r3,0(r3)
 2000364:	18c00084 	addi	r3,r3,2
 2000368:	10c00015 	stw	r3,0(r2)
		printf("Enter matrix height ");
 200036c:	010080b4 	movhi	r4,514
 2000370:	21280704 	addi	r4,r4,-24548
 2000374:	2002e780 	call	2002e78 <printf>
		scanf("%lu", height);
 2000378:	d0a00117 	ldw	r2,-32764(gp)
 200037c:	100b883a 	mov	r5,r2
 2000380:	010080b4 	movhi	r4,514
 2000384:	21280604 	addi	r4,r4,-24552
 2000388:	20031cc0 	call	20031cc <scanf>
		*height += 2;	// pad for two pixels along each side
 200038c:	d0a00117 	ldw	r2,-32764(gp)
 2000390:	d0e00117 	ldw	r3,-32764(gp)
 2000394:	18c00017 	ldw	r3,0(r3)
 2000398:	18c00084 	addi	r3,r3,2
 200039c:	10c00015 	stw	r3,0(r2)
		printf("Enter sources file name ");
 20003a0:	010080b4 	movhi	r4,514
 20003a4:	21280d04 	addi	r4,r4,-24524
 20003a8:	2002e780 	call	2002e78 <printf>
		scanf("%s", tmp);
 20003ac:	e0bff004 	addi	r2,fp,-64
 20003b0:	100b883a 	mov	r5,r2
 20003b4:	010080b4 	movhi	r4,514
 20003b8:	21281404 	addi	r4,r4,-24496
 20003bc:	20031cc0 	call	20031cc <scanf>
		snprintf(src, sizeof(src), "%s/%s", ALTERA_HOSTFS_NAME, tmp);
 20003c0:	e0ffe004 	addi	r3,fp,-128
 20003c4:	e0bff004 	addi	r2,fp,-64
 20003c8:	d8800015 	stw	r2,0(sp)
 20003cc:	01c080b4 	movhi	r7,514
 20003d0:	39e81504 	addi	r7,r7,-24492
 20003d4:	018080b4 	movhi	r6,514
 20003d8:	31a81804 	addi	r6,r6,-24480
 20003dc:	01401004 	movi	r5,64
 20003e0:	1809883a 	mov	r4,r3
 20003e4:	20033100 	call	2003310 <snprintf>

		fd = fopen(src, "rb");
 20003e8:	e0bfe004 	addi	r2,fp,-128
 20003ec:	014080b4 	movhi	r5,514
 20003f0:	29681a04 	addi	r5,r5,-24472
 20003f4:	1009883a 	mov	r4,r2
 20003f8:	20013a00 	call	20013a0 <fopen>
 20003fc:	e0bfcc15 	stw	r2,-208(fp)
		fread(c_x, sizeof(*c_x), 1, fd);
 2000400:	d0a00217 	ldw	r2,-32760(gp)
 2000404:	e1ffcc17 	ldw	r7,-208(fp)
 2000408:	01800044 	movi	r6,1
 200040c:	01400084 	movi	r5,2
 2000410:	1009883a 	mov	r4,r2
 2000414:	20015e40 	call	20015e4 <fread>
		fread(c_y, sizeof(*c_y), 1, fd);
 2000418:	d0a00317 	ldw	r2,-32756(gp)
 200041c:	e1ffcc17 	ldw	r7,-208(fp)
 2000420:	01800044 	movi	r6,1
 2000424:	01400084 	movi	r5,2
 2000428:	1009883a 	mov	r4,r2
 200042c:	20015e40 	call	20015e4 <fread>
		fread(nr_heat_src, sizeof(*nr_heat_src), 1, fd);
 2000430:	d0a00617 	ldw	r2,-32744(gp)
 2000434:	e1ffcc17 	ldw	r7,-208(fp)
 2000438:	01800044 	movi	r6,1
 200043c:	01400084 	movi	r5,2
 2000440:	1009883a 	mov	r4,r2
 2000444:	20015e40 	call	20015e4 <fread>

		fread(heat_srcs, sizeof(heat_src_t), *nr_heat_src, fd);
 2000448:	d0e00717 	ldw	r3,-32740(gp)
 200044c:	d0a00617 	ldw	r2,-32744(gp)
 2000450:	1080000b 	ldhu	r2,0(r2)
 2000454:	10bfffcc 	andi	r2,r2,65535
 2000458:	e1ffcc17 	ldw	r7,-208(fp)
 200045c:	100d883a 	mov	r6,r2
 2000460:	01400184 	movi	r5,6
 2000464:	1809883a 	mov	r4,r3
 2000468:	20015e40 	call	20015e4 <fread>

		fclose(fd);
 200046c:	e13fcc17 	ldw	r4,-208(fp)
 2000470:	2000c500 	call	2000c50 <fclose>

		printf("Enter output file name ");
 2000474:	010080b4 	movhi	r4,514
 2000478:	21281b04 	addi	r4,r4,-24468
 200047c:	2002e780 	call	2002e78 <printf>
		scanf("%s", tmp);
 2000480:	e0bff004 	addi	r2,fp,-64
 2000484:	100b883a 	mov	r5,r2
 2000488:	010080b4 	movhi	r4,514
 200048c:	21281404 	addi	r4,r4,-24496
 2000490:	20031cc0 	call	20031cc <scanf>
		snprintf(fout, sizeof(fout), "%s/%s", ALTERA_HOSTFS_NAME, tmp);
 2000494:	e0ffd004 	addi	r3,fp,-192
 2000498:	e0bff004 	addi	r2,fp,-64
 200049c:	d8800015 	stw	r2,0(sp)
 20004a0:	01c080b4 	movhi	r7,514
 20004a4:	39e81504 	addi	r7,r7,-24492
 20004a8:	018080b4 	movhi	r6,514
 20004ac:	31a81804 	addi	r6,r6,-24480
 20004b0:	01401004 	movi	r5,64
 20004b4:	1809883a 	mov	r4,r3
 20004b8:	20033100 	call	2003310 <snprintf>
		printf("Enter number of iterations ");
 20004bc:	010080b4 	movhi	r4,514
 20004c0:	21282104 	addi	r4,r4,-24444
 20004c4:	2002e780 	call	2002e78 <printf>
		scanf("%lu", &iter);
 20004c8:	e0bfcf04 	addi	r2,fp,-196
 20004cc:	100b883a 	mov	r5,r2
 20004d0:	010080b4 	movhi	r4,514
 20004d4:	21280604 	addi	r4,r4,-24552
 20004d8:	20031cc0 	call	20031cc <scanf>

		matrix_size = *width * *height;
 20004dc:	d0a00017 	ldw	r2,-32768(gp)
 20004e0:	10c00017 	ldw	r3,0(r2)
 20004e4:	d0a00117 	ldw	r2,-32764(gp)
 20004e8:	10800017 	ldw	r2,0(r2)
 20004ec:	1885383a 	mul	r2,r3,r2
 20004f0:	e0bfcd15 	stw	r2,-204(fp)
		printf("Matrix size is: %dx%d=%d\n", *width, *height, matrix_size);
 20004f4:	d0a00017 	ldw	r2,-32768(gp)
 20004f8:	10c00017 	ldw	r3,0(r2)
 20004fc:	d0a00117 	ldw	r2,-32764(gp)
 2000500:	10800017 	ldw	r2,0(r2)
 2000504:	e1ffcd17 	ldw	r7,-204(fp)
 2000508:	100d883a 	mov	r6,r2
 200050c:	180b883a 	mov	r5,r3
 2000510:	010080b4 	movhi	r4,514
 2000514:	21282804 	addi	r4,r4,-24416
 2000518:	2002e780 	call	2002e78 <printf>

		// initialize both matrices
		for (int it = 0; it < matrix_size; it++)
 200051c:	e03fc615 	stw	zero,-232(fp)
 2000520:	00000d06 	br	2000558 <main+0x270>
		{
			matrix1[it] = 0;
 2000524:	d0e00417 	ldw	r3,-32752(gp)
 2000528:	e0bfc617 	ldw	r2,-232(fp)
 200052c:	1085883a 	add	r2,r2,r2
 2000530:	1885883a 	add	r2,r3,r2
 2000534:	1000000d 	sth	zero,0(r2)
			matrix2[it] = 0;
 2000538:	d0e00517 	ldw	r3,-32748(gp)
 200053c:	e0bfc617 	ldw	r2,-232(fp)
 2000540:	1085883a 	add	r2,r2,r2
 2000544:	1885883a 	add	r2,r3,r2
 2000548:	1000000d 	sth	zero,0(r2)

		matrix_size = *width * *height;
		printf("Matrix size is: %dx%d=%d\n", *width, *height, matrix_size);

		// initialize both matrices
		for (int it = 0; it < matrix_size; it++)
 200054c:	e0bfc617 	ldw	r2,-232(fp)
 2000550:	10800044 	addi	r2,r2,1
 2000554:	e0bfc615 	stw	r2,-232(fp)
 2000558:	e0ffc617 	ldw	r3,-232(fp)
 200055c:	e0bfcd17 	ldw	r2,-204(fp)
 2000560:	18bff036 	bltu	r3,r2,2000524 <__alt_mem_shared_ocm+0xfdfff524>
			matrix1[it] = 0;
			matrix2[it] = 0;
		}

		// initialize heat sources
		for (int src = 0; src < *nr_heat_src; src++)
 2000564:	e03fc715 	stw	zero,-228(fp)
 2000568:	00002a06 	br	2000614 <main+0x32c>
		{
			// add 1 to x and y position since matrix will be padded with zeros along each side
			heat_srcs[src].xpos++;
 200056c:	d0e00717 	ldw	r3,-32740(gp)
 2000570:	e0bfc717 	ldw	r2,-228(fp)
 2000574:	108001a4 	muli	r2,r2,6
 2000578:	1885883a 	add	r2,r3,r2
 200057c:	10c0000b 	ldhu	r3,0(r2)
 2000580:	18c00044 	addi	r3,r3,1
 2000584:	10c0000d 	sth	r3,0(r2)
			heat_srcs[src].ypos++;
 2000588:	d0e00717 	ldw	r3,-32740(gp)
 200058c:	e0bfc717 	ldw	r2,-228(fp)
 2000590:	108001a4 	muli	r2,r2,6
 2000594:	1885883a 	add	r2,r3,r2
 2000598:	10c0008b 	ldhu	r3,2(r2)
 200059c:	18c00044 	addi	r3,r3,1
 20005a0:	10c0008d 	sth	r3,2(r2)
			matrix1[heat_srcs[src].ypos * *width + heat_srcs[src].xpos] = heat_srcs[src].heat;
 20005a4:	d0e00417 	ldw	r3,-32752(gp)
 20005a8:	d1200717 	ldw	r4,-32740(gp)
 20005ac:	e0bfc717 	ldw	r2,-228(fp)
 20005b0:	108001a4 	muli	r2,r2,6
 20005b4:	2085883a 	add	r2,r4,r2
 20005b8:	1080008b 	ldhu	r2,2(r2)
 20005bc:	113fffcc 	andi	r4,r2,65535
 20005c0:	d0a00017 	ldw	r2,-32768(gp)
 20005c4:	10800017 	ldw	r2,0(r2)
 20005c8:	2089383a 	mul	r4,r4,r2
 20005cc:	d1600717 	ldw	r5,-32740(gp)
 20005d0:	e0bfc717 	ldw	r2,-228(fp)
 20005d4:	108001a4 	muli	r2,r2,6
 20005d8:	2885883a 	add	r2,r5,r2
 20005dc:	1080000b 	ldhu	r2,0(r2)
 20005e0:	10bfffcc 	andi	r2,r2,65535
 20005e4:	2085883a 	add	r2,r4,r2
 20005e8:	1085883a 	add	r2,r2,r2
 20005ec:	1885883a 	add	r2,r3,r2
 20005f0:	d1200717 	ldw	r4,-32740(gp)
 20005f4:	e0ffc717 	ldw	r3,-228(fp)
 20005f8:	18c001a4 	muli	r3,r3,6
 20005fc:	20c7883a 	add	r3,r4,r3
 2000600:	18c0010b 	ldhu	r3,4(r3)
 2000604:	10c0000d 	sth	r3,0(r2)
			matrix1[it] = 0;
			matrix2[it] = 0;
		}

		// initialize heat sources
		for (int src = 0; src < *nr_heat_src; src++)
 2000608:	e0bfc717 	ldw	r2,-228(fp)
 200060c:	10800044 	addi	r2,r2,1
 2000610:	e0bfc715 	stw	r2,-228(fp)
 2000614:	d0a00617 	ldw	r2,-32744(gp)
 2000618:	1080000b 	ldhu	r2,0(r2)
 200061c:	10bfffcc 	andi	r2,r2,65535
 2000620:	e0ffc717 	ldw	r3,-228(fp)
 2000624:	18bfd116 	blt	r3,r2,200056c <__alt_mem_shared_ocm+0xfdfff56c>
			heat_srcs[src].xpos++;
			heat_srcs[src].ypos++;
			matrix1[heat_srcs[src].ypos * *width + heat_srcs[src].xpos] = heat_srcs[src].heat;
		}

		curr = matrix1;
 2000628:	d0a00417 	ldw	r2,-32752(gp)
 200062c:	e0bfc415 	stw	r2,-240(fp)
		next = matrix2;
 2000630:	d0a00517 	ldw	r2,-32748(gp)
 2000634:	e0bfc515 	stw	r2,-236(fp)

		for (int i = 0; i < 4; i++)
 2000638:	e03fc815 	stw	zero,-224(fp)
 200063c:	00000906 	br	2000664 <main+0x37c>
		{
			descriptors[i].status = DESC_DONE;
 2000640:	d0e00817 	ldw	r3,-32736(gp)
 2000644:	e0bfc817 	ldw	r2,-224(fp)
 2000648:	1004917a 	slli	r2,r2,5
 200064c:	1885883a 	add	r2,r3,r2
 2000650:	00c00584 	movi	r3,22
 2000654:	10c00515 	stw	r3,20(r2)
		}

		curr = matrix1;
		next = matrix2;

		for (int i = 0; i < 4; i++)
 2000658:	e0bfc817 	ldw	r2,-224(fp)
 200065c:	10800044 	addi	r2,r2,1
 2000660:	e0bfc815 	stw	r2,-224(fp)
 2000664:	e0bfc817 	ldw	r2,-224(fp)
 2000668:	10800110 	cmplti	r2,r2,4
 200066c:	103ff41e 	bne	r2,zero,2000640 <__alt_mem_shared_ocm+0xfdfff640>
		descriptors[2].status = DESC_READY;
		descriptors[2].curr	= curr;
		descriptors[2].next	= next;
		printf("done with desctriptors for 3...");
#elif (NR_OF_WORKERS==4)
		descriptors[0].id = 0;
 2000670:	d0a00817 	ldw	r2,-32736(gp)
 2000674:	10000015 	stw	zero,0(r2)
		descriptors[0].col_start = 1;
 2000678:	d0a00817 	ldw	r2,-32736(gp)
 200067c:	00c00044 	movi	r3,1
 2000680:	10c00215 	stw	r3,8(r2)
		descriptors[0].row_start = 1;
 2000684:	d0a00817 	ldw	r2,-32736(gp)
 2000688:	00c00044 	movi	r3,1
 200068c:	10c00115 	stw	r3,4(r2)
		descriptors[0].region_width = *width;
 2000690:	d0a00817 	ldw	r2,-32736(gp)
 2000694:	d0e00017 	ldw	r3,-32768(gp)
 2000698:	18c00017 	ldw	r3,0(r3)
 200069c:	10c00315 	stw	r3,12(r2)
		descriptors[0].region_height = *height/4+2;
 20006a0:	d0a00817 	ldw	r2,-32736(gp)
 20006a4:	d0e00117 	ldw	r3,-32764(gp)
 20006a8:	18c00017 	ldw	r3,0(r3)
 20006ac:	1806d0ba 	srli	r3,r3,2
 20006b0:	18c00084 	addi	r3,r3,2
 20006b4:	10c00415 	stw	r3,16(r2)
		descriptors[0].status = DESC_READY;
 20006b8:	d0a00817 	ldw	r2,-32736(gp)
 20006bc:	00c002c4 	movi	r3,11
 20006c0:	10c00515 	stw	r3,20(r2)
		descriptors[0].curr	= curr;
 20006c4:	d0a00817 	ldw	r2,-32736(gp)
 20006c8:	e0ffc417 	ldw	r3,-240(fp)
 20006cc:	10c00615 	stw	r3,24(r2)
		descriptors[0].next	= next;
 20006d0:	d0a00817 	ldw	r2,-32736(gp)
 20006d4:	e0ffc517 	ldw	r3,-236(fp)
 20006d8:	10c00715 	stw	r3,28(r2)

		descriptors[1].id = 0;
 20006dc:	d0a00817 	ldw	r2,-32736(gp)
 20006e0:	10800804 	addi	r2,r2,32
 20006e4:	10000015 	stw	zero,0(r2)
		descriptors[1].col_start = *height/4+1;
 20006e8:	d0a00817 	ldw	r2,-32736(gp)
 20006ec:	10800804 	addi	r2,r2,32
 20006f0:	d0e00117 	ldw	r3,-32764(gp)
 20006f4:	18c00017 	ldw	r3,0(r3)
 20006f8:	1806d0ba 	srli	r3,r3,2
 20006fc:	18c00044 	addi	r3,r3,1
 2000700:	10c00215 	stw	r3,8(r2)
		descriptors[1].row_start = 1;
 2000704:	d0a00817 	ldw	r2,-32736(gp)
 2000708:	10800804 	addi	r2,r2,32
 200070c:	00c00044 	movi	r3,1
 2000710:	10c00115 	stw	r3,4(r2)
		descriptors[1].region_width = *width;
 2000714:	d0a00817 	ldw	r2,-32736(gp)
 2000718:	10800804 	addi	r2,r2,32
 200071c:	d0e00017 	ldw	r3,-32768(gp)
 2000720:	18c00017 	ldw	r3,0(r3)
 2000724:	10c00315 	stw	r3,12(r2)
		descriptors[1].region_height = *height/4+2;
 2000728:	d0a00817 	ldw	r2,-32736(gp)
 200072c:	10800804 	addi	r2,r2,32
 2000730:	d0e00117 	ldw	r3,-32764(gp)
 2000734:	18c00017 	ldw	r3,0(r3)
 2000738:	1806d0ba 	srli	r3,r3,2
 200073c:	18c00084 	addi	r3,r3,2
 2000740:	10c00415 	stw	r3,16(r2)
		descriptors[1].status = DESC_READY;
 2000744:	d0a00817 	ldw	r2,-32736(gp)
 2000748:	10800804 	addi	r2,r2,32
 200074c:	00c002c4 	movi	r3,11
 2000750:	10c00515 	stw	r3,20(r2)
		descriptors[1].curr	= curr;
 2000754:	d0a00817 	ldw	r2,-32736(gp)
 2000758:	10800804 	addi	r2,r2,32
 200075c:	e0ffc417 	ldw	r3,-240(fp)
 2000760:	10c00615 	stw	r3,24(r2)
		descriptors[1].next	= next;
 2000764:	d0a00817 	ldw	r2,-32736(gp)
 2000768:	10800804 	addi	r2,r2,32
 200076c:	e0ffc517 	ldw	r3,-236(fp)
 2000770:	10c00715 	stw	r3,28(r2)

		descriptors[2].id = 0;
 2000774:	d0a00817 	ldw	r2,-32736(gp)
 2000778:	10801004 	addi	r2,r2,64
 200077c:	10000015 	stw	zero,0(r2)
		descriptors[2].col_start = (2 * *height)/4;
 2000780:	d0a00817 	ldw	r2,-32736(gp)
 2000784:	10c01004 	addi	r3,r2,64
 2000788:	d0a00117 	ldw	r2,-32764(gp)
 200078c:	10800017 	ldw	r2,0(r2)
 2000790:	1085883a 	add	r2,r2,r2
 2000794:	1004d0ba 	srli	r2,r2,2
 2000798:	18800215 	stw	r2,8(r3)
		descriptors[2].row_start =1 ;
 200079c:	d0a00817 	ldw	r2,-32736(gp)
 20007a0:	10801004 	addi	r2,r2,64
 20007a4:	00c00044 	movi	r3,1
 20007a8:	10c00115 	stw	r3,4(r2)
		descriptors[2].region_width = *width;
 20007ac:	d0a00817 	ldw	r2,-32736(gp)
 20007b0:	10801004 	addi	r2,r2,64
 20007b4:	d0e00017 	ldw	r3,-32768(gp)
 20007b8:	18c00017 	ldw	r3,0(r3)
 20007bc:	10c00315 	stw	r3,12(r2)
		descriptors[2].region_height = *height/4+2;
 20007c0:	d0a00817 	ldw	r2,-32736(gp)
 20007c4:	10801004 	addi	r2,r2,64
 20007c8:	d0e00117 	ldw	r3,-32764(gp)
 20007cc:	18c00017 	ldw	r3,0(r3)
 20007d0:	1806d0ba 	srli	r3,r3,2
 20007d4:	18c00084 	addi	r3,r3,2
 20007d8:	10c00415 	stw	r3,16(r2)
		descriptors[2].status = DESC_READY;
 20007dc:	d0a00817 	ldw	r2,-32736(gp)
 20007e0:	10801004 	addi	r2,r2,64
 20007e4:	00c002c4 	movi	r3,11
 20007e8:	10c00515 	stw	r3,20(r2)
		descriptors[2].curr	= curr;
 20007ec:	d0a00817 	ldw	r2,-32736(gp)
 20007f0:	10801004 	addi	r2,r2,64
 20007f4:	e0ffc417 	ldw	r3,-240(fp)
 20007f8:	10c00615 	stw	r3,24(r2)
		descriptors[2].next	= next;
 20007fc:	d0a00817 	ldw	r2,-32736(gp)
 2000800:	10801004 	addi	r2,r2,64
 2000804:	e0ffc517 	ldw	r3,-236(fp)
 2000808:	10c00715 	stw	r3,28(r2)

		descriptors[3].id = 0;
 200080c:	d0a00817 	ldw	r2,-32736(gp)
 2000810:	10801804 	addi	r2,r2,96
 2000814:	10000015 	stw	zero,0(r2)
		descriptors[3].col_start = (3 * *height)/4;
 2000818:	d0a00817 	ldw	r2,-32736(gp)
 200081c:	11001804 	addi	r4,r2,96
 2000820:	d0a00117 	ldw	r2,-32764(gp)
 2000824:	10c00017 	ldw	r3,0(r2)
 2000828:	1805883a 	mov	r2,r3
 200082c:	1085883a 	add	r2,r2,r2
 2000830:	10c5883a 	add	r2,r2,r3
 2000834:	1004d0ba 	srli	r2,r2,2
 2000838:	20800215 	stw	r2,8(r4)
		descriptors[3].row_start = 1;
 200083c:	d0a00817 	ldw	r2,-32736(gp)
 2000840:	10801804 	addi	r2,r2,96
 2000844:	00c00044 	movi	r3,1
 2000848:	10c00115 	stw	r3,4(r2)
		descriptors[3].region_width = *width;
 200084c:	d0a00817 	ldw	r2,-32736(gp)
 2000850:	10801804 	addi	r2,r2,96
 2000854:	d0e00017 	ldw	r3,-32768(gp)
 2000858:	18c00017 	ldw	r3,0(r3)
 200085c:	10c00315 	stw	r3,12(r2)
		descriptors[3].region_height = *height/4+2;
 2000860:	d0a00817 	ldw	r2,-32736(gp)
 2000864:	10801804 	addi	r2,r2,96
 2000868:	d0e00117 	ldw	r3,-32764(gp)
 200086c:	18c00017 	ldw	r3,0(r3)
 2000870:	1806d0ba 	srli	r3,r3,2
 2000874:	18c00084 	addi	r3,r3,2
 2000878:	10c00415 	stw	r3,16(r2)
		descriptors[3].status = DESC_READY;
 200087c:	d0a00817 	ldw	r2,-32736(gp)
 2000880:	10801804 	addi	r2,r2,96
 2000884:	00c002c4 	movi	r3,11
 2000888:	10c00515 	stw	r3,20(r2)
		descriptors[3].curr	= curr;
 200088c:	d0a00817 	ldw	r2,-32736(gp)
 2000890:	10801804 	addi	r2,r2,96
 2000894:	e0ffc417 	ldw	r3,-240(fp)
 2000898:	10c00615 	stw	r3,24(r2)
		descriptors[3].next	= next;
 200089c:	d0a00817 	ldw	r2,-32736(gp)
 20008a0:	10801804 	addi	r2,r2,96
 20008a4:	e0ffc517 	ldw	r3,-236(fp)
 20008a8:	10c00715 	stw	r3,28(r2)
#endif
		altera_avalon_mutex_unlock(mux);
 20008ac:	d0a71717 	ldw	r2,-25508(gp)
 20008b0:	1009883a 	mov	r4,r2
 20008b4:	20183fc0 	call	20183fc <altera_avalon_mutex_unlock>

#ifdef MEASURE_PERFORMANCE
	// mark beginning of code for which we are interested in performance
		PERF_BEGIN(PERFORMANCE_COUNTER_0_BASE,1);
 20008b8:	0007883a 	mov	r3,zero
 20008bc:	00810034 	movhi	r2,1024
 20008c0:	10850504 	addi	r2,r2,5140
 20008c4:	10c00035 	stwio	r3,0(r2)
#endif /* MEASURE_PERFORMANCE */

		for (int i = 0; i < iter; i++)
 20008c8:	e03fc915 	stw	zero,-220(fp)
 20008cc:	00004806 	br	20009f0 <main+0x708>
		{
			while(descriptors[0].status != DESC_DONE)
			{
				usleep(100);
 20008d0:	01001904 	movi	r4,100
 20008d4:	20174fc0 	call	20174fc <usleep>
		PERF_BEGIN(PERFORMANCE_COUNTER_0_BASE,1);
#endif /* MEASURE_PERFORMANCE */

		for (int i = 0; i < iter; i++)
		{
			while(descriptors[0].status != DESC_DONE)
 20008d8:	d0a00817 	ldw	r2,-32736(gp)
 20008dc:	10800517 	ldw	r2,20(r2)
 20008e0:	10800598 	cmpnei	r2,r2,22
 20008e4:	103ffa1e 	bne	r2,zero,20008d0 <__alt_mem_shared_ocm+0xfdfff8d0>
			{
				usleep(100);
			}
			while(descriptors[1].status != DESC_DONE)
 20008e8:	00000206 	br	20008f4 <main+0x60c>
			{
				usleep(100);
 20008ec:	01001904 	movi	r4,100
 20008f0:	20174fc0 	call	20174fc <usleep>
		{
			while(descriptors[0].status != DESC_DONE)
			{
				usleep(100);
			}
			while(descriptors[1].status != DESC_DONE)
 20008f4:	d0a00817 	ldw	r2,-32736(gp)
 20008f8:	10800804 	addi	r2,r2,32
 20008fc:	10800517 	ldw	r2,20(r2)
 2000900:	10800598 	cmpnei	r2,r2,22
 2000904:	103ff91e 	bne	r2,zero,20008ec <__alt_mem_shared_ocm+0xfdfff8ec>
			{
				usleep(100);
			}
			while(descriptors[2].status != DESC_DONE)
 2000908:	00000206 	br	2000914 <main+0x62c>
			{
				usleep(100);
 200090c:	01001904 	movi	r4,100
 2000910:	20174fc0 	call	20174fc <usleep>
			}
			while(descriptors[1].status != DESC_DONE)
			{
				usleep(100);
			}
			while(descriptors[2].status != DESC_DONE)
 2000914:	d0a00817 	ldw	r2,-32736(gp)
 2000918:	10801004 	addi	r2,r2,64
 200091c:	10800517 	ldw	r2,20(r2)
 2000920:	10800598 	cmpnei	r2,r2,22
 2000924:	103ff91e 	bne	r2,zero,200090c <__alt_mem_shared_ocm+0xfdfff90c>
			{
				usleep(100);
			}
			while(descriptors[3].status != DESC_DONE)
 2000928:	00000206 	br	2000934 <main+0x64c>
			{
				usleep(100);
 200092c:	01001904 	movi	r4,100
 2000930:	20174fc0 	call	20174fc <usleep>
			}
			while(descriptors[2].status != DESC_DONE)
			{
				usleep(100);
			}
			while(descriptors[3].status != DESC_DONE)
 2000934:	d0a00817 	ldw	r2,-32736(gp)
 2000938:	10801804 	addi	r2,r2,96
 200093c:	10800517 	ldw	r2,20(r2)
 2000940:	10800598 	cmpnei	r2,r2,22
 2000944:	103ff91e 	bne	r2,zero,200092c <__alt_mem_shared_ocm+0xfdfff92c>
			{
				usleep(100);
			}

			altera_avalon_mutex_lock(mux,1);
 2000948:	d0a71717 	ldw	r2,-25508(gp)
 200094c:	01400044 	movi	r5,1
 2000950:	1009883a 	mov	r4,r2
 2000954:	20183780 	call	2018378 <altera_avalon_mutex_lock>
			//altera_avalon_mutex_

			// update next and curr
			int16_t *swap = curr;
 2000958:	e0bfc417 	ldw	r2,-240(fp)
 200095c:	e0bfce15 	stw	r2,-200(fp)
			curr = next;
 2000960:	e0bfc517 	ldw	r2,-236(fp)
 2000964:	e0bfc415 	stw	r2,-240(fp)
			next = swap;
 2000968:	e0bfce17 	ldw	r2,-200(fp)
 200096c:	e0bfc515 	stw	r2,-236(fp)

			for (int i = 0; i < NR_OF_WORKERS; i++)
 2000970:	e03fca15 	stw	zero,-216(fp)
 2000974:	00001506 	br	20009cc <main+0x6e4>
			{
				descriptors[i].curr	= curr;
 2000978:	d0e00817 	ldw	r3,-32736(gp)
 200097c:	e0bfca17 	ldw	r2,-216(fp)
 2000980:	1004917a 	slli	r2,r2,5
 2000984:	1885883a 	add	r2,r3,r2
 2000988:	e0ffc417 	ldw	r3,-240(fp)
 200098c:	10c00615 	stw	r3,24(r2)
				descriptors[i].next	= next;
 2000990:	d0e00817 	ldw	r3,-32736(gp)
 2000994:	e0bfca17 	ldw	r2,-216(fp)
 2000998:	1004917a 	slli	r2,r2,5
 200099c:	1885883a 	add	r2,r3,r2
 20009a0:	e0ffc517 	ldw	r3,-236(fp)
 20009a4:	10c00715 	stw	r3,28(r2)
				descriptors[i].status = DESC_READY;
 20009a8:	d0e00817 	ldw	r3,-32736(gp)
 20009ac:	e0bfca17 	ldw	r2,-216(fp)
 20009b0:	1004917a 	slli	r2,r2,5
 20009b4:	1885883a 	add	r2,r3,r2
 20009b8:	00c002c4 	movi	r3,11
 20009bc:	10c00515 	stw	r3,20(r2)
			// update next and curr
			int16_t *swap = curr;
			curr = next;
			next = swap;

			for (int i = 0; i < NR_OF_WORKERS; i++)
 20009c0:	e0bfca17 	ldw	r2,-216(fp)
 20009c4:	10800044 	addi	r2,r2,1
 20009c8:	e0bfca15 	stw	r2,-216(fp)
 20009cc:	e0bfca17 	ldw	r2,-216(fp)
 20009d0:	10800110 	cmplti	r2,r2,4
 20009d4:	103fe81e 	bne	r2,zero,2000978 <__alt_mem_shared_ocm+0xfdfff978>
			{
				descriptors[i].curr	= curr;
				descriptors[i].next	= next;
				descriptors[i].status = DESC_READY;
			}
			altera_avalon_mutex_unlock(mux);
 20009d8:	d0a71717 	ldw	r2,-25508(gp)
 20009dc:	1009883a 	mov	r4,r2
 20009e0:	20183fc0 	call	20183fc <altera_avalon_mutex_unlock>
#ifdef MEASURE_PERFORMANCE
	// mark beginning of code for which we are interested in performance
		PERF_BEGIN(PERFORMANCE_COUNTER_0_BASE,1);
#endif /* MEASURE_PERFORMANCE */

		for (int i = 0; i < iter; i++)
 20009e4:	e0bfc917 	ldw	r2,-220(fp)
 20009e8:	10800044 	addi	r2,r2,1
 20009ec:	e0bfc915 	stw	r2,-220(fp)
 20009f0:	e0ffc917 	ldw	r3,-220(fp)
 20009f4:	e0bfcf17 	ldw	r2,-196(fp)
 20009f8:	18bfb736 	bltu	r3,r2,20008d8 <__alt_mem_shared_ocm+0xfdfff8d8>

		}


#ifdef MEASURE_PERFORMANCE
		PERF_END(PERFORMANCE_COUNTER_0_BASE,1);
 20009fc:	0007883a 	mov	r3,zero
 2000a00:	00810034 	movhi	r2,1024
 2000a04:	10850404 	addi	r2,r2,5136
 2000a08:	10c00035 	stwio	r3,0(r2)
#endif /* MEASURE_PERFORMANCE */


		printf("MATRIX BEGIN\n");
 2000a0c:	010080b4 	movhi	r4,514
 2000a10:	21282f04 	addi	r4,r4,-24388
 2000a14:	2002f740 	call	2002f74 <puts>

		fd = fopen(fout, "wb");
 2000a18:	e0bfd004 	addi	r2,fp,-192
 2000a1c:	014080b4 	movhi	r5,514
 2000a20:	29683304 	addi	r5,r5,-24372
 2000a24:	1009883a 	mov	r4,r2
 2000a28:	20013a00 	call	20013a0 <fopen>
 2000a2c:	e0bfcc15 	stw	r2,-208(fp)

		*width -= 2;
 2000a30:	d0a00017 	ldw	r2,-32768(gp)
 2000a34:	d0e00017 	ldw	r3,-32768(gp)
 2000a38:	18c00017 	ldw	r3,0(r3)
 2000a3c:	18ffff84 	addi	r3,r3,-2
 2000a40:	10c00015 	stw	r3,0(r2)
		*height -= 2;
 2000a44:	d0a00117 	ldw	r2,-32764(gp)
 2000a48:	d0e00117 	ldw	r3,-32764(gp)
 2000a4c:	18c00017 	ldw	r3,0(r3)
 2000a50:	18ffff84 	addi	r3,r3,-2
 2000a54:	10c00015 	stw	r3,0(r2)

		fwrite(width, sizeof(uint32_t), 1, fd);
 2000a58:	d0a00017 	ldw	r2,-32768(gp)
 2000a5c:	e1ffcc17 	ldw	r7,-208(fp)
 2000a60:	01800044 	movi	r6,1
 2000a64:	01400104 	movi	r5,4
 2000a68:	1009883a 	mov	r4,r2
 2000a6c:	200217c0 	call	200217c <fwrite>
		fwrite(height, sizeof(uint32_t), 1, fd);
 2000a70:	d0a00117 	ldw	r2,-32764(gp)
 2000a74:	e1ffcc17 	ldw	r7,-208(fp)
 2000a78:	01800044 	movi	r6,1
 2000a7c:	01400104 	movi	r5,4
 2000a80:	1009883a 	mov	r4,r2
 2000a84:	200217c0 	call	200217c <fwrite>
		for (int i = 0; i < *height; i++)
 2000a88:	e03fcb15 	stw	zero,-212(fp)
 2000a8c:	00001606 	br	2000ae8 <main+0x800>
		{
			fwrite(&curr[(i + 1) * (*width + 2) + 1],sizeof(uint16_t),*width,fd);
 2000a90:	e0bfcb17 	ldw	r2,-212(fp)
 2000a94:	10800044 	addi	r2,r2,1
 2000a98:	1007883a 	mov	r3,r2
 2000a9c:	d0a00017 	ldw	r2,-32768(gp)
 2000aa0:	10800017 	ldw	r2,0(r2)
 2000aa4:	10800084 	addi	r2,r2,2
 2000aa8:	1885383a 	mul	r2,r3,r2
 2000aac:	10800044 	addi	r2,r2,1
 2000ab0:	1085883a 	add	r2,r2,r2
 2000ab4:	1007883a 	mov	r3,r2
 2000ab8:	e0bfc417 	ldw	r2,-240(fp)
 2000abc:	10c7883a 	add	r3,r2,r3
 2000ac0:	d0a00017 	ldw	r2,-32768(gp)
 2000ac4:	10800017 	ldw	r2,0(r2)
 2000ac8:	e1ffcc17 	ldw	r7,-208(fp)
 2000acc:	100d883a 	mov	r6,r2
 2000ad0:	01400084 	movi	r5,2
 2000ad4:	1809883a 	mov	r4,r3
 2000ad8:	200217c0 	call	200217c <fwrite>
		*width -= 2;
		*height -= 2;

		fwrite(width, sizeof(uint32_t), 1, fd);
		fwrite(height, sizeof(uint32_t), 1, fd);
		for (int i = 0; i < *height; i++)
 2000adc:	e0bfcb17 	ldw	r2,-212(fp)
 2000ae0:	10800044 	addi	r2,r2,1
 2000ae4:	e0bfcb15 	stw	r2,-212(fp)
 2000ae8:	d0a00117 	ldw	r2,-32764(gp)
 2000aec:	10800017 	ldw	r2,0(r2)
 2000af0:	e0ffcb17 	ldw	r3,-212(fp)
 2000af4:	18bfe636 	bltu	r3,r2,2000a90 <__alt_mem_shared_ocm+0xfdfffa90>
		{
			fwrite(&curr[(i + 1) * (*width + 2) + 1],sizeof(uint16_t),*width,fd);
		}

		fflush(fd);
 2000af8:	e13fcc17 	ldw	r4,-208(fp)
 2000afc:	2000edc0 	call	2000edc <fflush>

		fclose(fd);
 2000b00:	e13fcc17 	ldw	r4,-208(fp)
 2000b04:	2000c500 	call	2000c50 <fclose>

		printf("MATRIX END\n");
 2000b08:	010080b4 	movhi	r4,514
 2000b0c:	21283404 	addi	r4,r4,-24368
 2000b10:	2002f740 	call	2002f74 <puts>

		printf("PERF BEGIN\n");
 2000b14:	010080b4 	movhi	r4,514
 2000b18:	21283704 	addi	r4,r4,-24356
 2000b1c:	2002f740 	call	2002f74 <puts>
#ifdef MEASURE_PERFORMANCE
		PERF_STOP_MEASURING(PERFORMANCE_COUNTER_0_BASE);
 2000b20:	0007883a 	mov	r3,zero
 2000b24:	00810034 	movhi	r2,1024
 2000b28:	10850004 	addi	r2,r2,5120
 2000b2c:	10c00035 	stwio	r3,0(r2)

		perf_print_formatted_report((void *)PERFORMANCE_COUNTER_0_BASE,
 2000b30:	20186800 	call	2018680 <alt_get_cpu_freq>
 2000b34:	01c080b4 	movhi	r7,514
 2000b38:	39e83a04 	addi	r7,r7,-24344
 2000b3c:	01800044 	movi	r6,1
 2000b40:	100b883a 	mov	r5,r2
 2000b44:	01010034 	movhi	r4,1024
 2000b48:	21050004 	addi	r4,r4,5120
 2000b4c:	2018b280 	call	2018b28 <perf_print_formatted_report>
									alt_get_cpu_freq(),
									1,//PERFORMANCE_COUNTER_0_HOW_MANY_SECTIONS
									"processing");
#endif /* MEASURE_PERFORMANCE */
		printf("PERF END\n");
 2000b50:	010080b4 	movhi	r4,514
 2000b54:	21283d04 	addi	r4,r4,-24332
 2000b58:	2002f740 	call	2002f74 <puts>
	}
 2000b5c:	003deb06 	br	200030c <__alt_mem_shared_ocm+0xfdfff30c>

02000b60 <_fclose_r>:
 2000b60:	28003926 	beq	r5,zero,2000c48 <_fclose_r+0xe8>
 2000b64:	defffc04 	addi	sp,sp,-16
 2000b68:	dc400115 	stw	r17,4(sp)
 2000b6c:	dc000015 	stw	r16,0(sp)
 2000b70:	dfc00315 	stw	ra,12(sp)
 2000b74:	dc800215 	stw	r18,8(sp)
 2000b78:	2023883a 	mov	r17,r4
 2000b7c:	2821883a 	mov	r16,r5
 2000b80:	20000226 	beq	r4,zero,2000b8c <_fclose_r+0x2c>
 2000b84:	20800e17 	ldw	r2,56(r4)
 2000b88:	10002726 	beq	r2,zero,2000c28 <_fclose_r+0xc8>
 2000b8c:	8080030f 	ldh	r2,12(r16)
 2000b90:	1000071e 	bne	r2,zero,2000bb0 <_fclose_r+0x50>
 2000b94:	0005883a 	mov	r2,zero
 2000b98:	dfc00317 	ldw	ra,12(sp)
 2000b9c:	dc800217 	ldw	r18,8(sp)
 2000ba0:	dc400117 	ldw	r17,4(sp)
 2000ba4:	dc000017 	ldw	r16,0(sp)
 2000ba8:	dec00404 	addi	sp,sp,16
 2000bac:	f800283a 	ret
 2000bb0:	800b883a 	mov	r5,r16
 2000bb4:	8809883a 	mov	r4,r17
 2000bb8:	2000c640 	call	2000c64 <__sflush_r>
 2000bbc:	1025883a 	mov	r18,r2
 2000bc0:	80800b17 	ldw	r2,44(r16)
 2000bc4:	10000426 	beq	r2,zero,2000bd8 <_fclose_r+0x78>
 2000bc8:	81400717 	ldw	r5,28(r16)
 2000bcc:	8809883a 	mov	r4,r17
 2000bd0:	103ee83a 	callr	r2
 2000bd4:	10001616 	blt	r2,zero,2000c30 <_fclose_r+0xd0>
 2000bd8:	8080030b 	ldhu	r2,12(r16)
 2000bdc:	1080200c 	andi	r2,r2,128
 2000be0:	1000151e 	bne	r2,zero,2000c38 <_fclose_r+0xd8>
 2000be4:	81400c17 	ldw	r5,48(r16)
 2000be8:	28000526 	beq	r5,zero,2000c00 <_fclose_r+0xa0>
 2000bec:	80801004 	addi	r2,r16,64
 2000bf0:	28800226 	beq	r5,r2,2000bfc <_fclose_r+0x9c>
 2000bf4:	8809883a 	mov	r4,r17
 2000bf8:	200173c0 	call	200173c <_free_r>
 2000bfc:	80000c15 	stw	zero,48(r16)
 2000c00:	81401117 	ldw	r5,68(r16)
 2000c04:	28000326 	beq	r5,zero,2000c14 <_fclose_r+0xb4>
 2000c08:	8809883a 	mov	r4,r17
 2000c0c:	200173c0 	call	200173c <_free_r>
 2000c10:	80001115 	stw	zero,68(r16)
 2000c14:	200126c0 	call	200126c <__sfp_lock_acquire>
 2000c18:	8000030d 	sth	zero,12(r16)
 2000c1c:	20012700 	call	2001270 <__sfp_lock_release>
 2000c20:	9005883a 	mov	r2,r18
 2000c24:	003fdc06 	br	2000b98 <__alt_mem_shared_ocm+0xfdfffb98>
 2000c28:	200125c0 	call	200125c <__sinit>
 2000c2c:	003fd706 	br	2000b8c <__alt_mem_shared_ocm+0xfdfffb8c>
 2000c30:	04bfffc4 	movi	r18,-1
 2000c34:	003fe806 	br	2000bd8 <__alt_mem_shared_ocm+0xfdfffbd8>
 2000c38:	81400417 	ldw	r5,16(r16)
 2000c3c:	8809883a 	mov	r4,r17
 2000c40:	200173c0 	call	200173c <_free_r>
 2000c44:	003fe706 	br	2000be4 <__alt_mem_shared_ocm+0xfdfffbe4>
 2000c48:	0005883a 	mov	r2,zero
 2000c4c:	f800283a 	ret

02000c50 <fclose>:
 2000c50:	008080b4 	movhi	r2,514
 2000c54:	10b12104 	addi	r2,r2,-15228
 2000c58:	200b883a 	mov	r5,r4
 2000c5c:	11000017 	ldw	r4,0(r2)
 2000c60:	2000b601 	jmpi	2000b60 <_fclose_r>

02000c64 <__sflush_r>:
 2000c64:	2880030b 	ldhu	r2,12(r5)
 2000c68:	defffb04 	addi	sp,sp,-20
 2000c6c:	dcc00315 	stw	r19,12(sp)
 2000c70:	dc400115 	stw	r17,4(sp)
 2000c74:	dfc00415 	stw	ra,16(sp)
 2000c78:	dc800215 	stw	r18,8(sp)
 2000c7c:	dc000015 	stw	r16,0(sp)
 2000c80:	10c0020c 	andi	r3,r2,8
 2000c84:	2823883a 	mov	r17,r5
 2000c88:	2027883a 	mov	r19,r4
 2000c8c:	1800311e 	bne	r3,zero,2000d54 <__sflush_r+0xf0>
 2000c90:	28c00117 	ldw	r3,4(r5)
 2000c94:	10820014 	ori	r2,r2,2048
 2000c98:	2880030d 	sth	r2,12(r5)
 2000c9c:	00c04b0e 	bge	zero,r3,2000dcc <__sflush_r+0x168>
 2000ca0:	8a000a17 	ldw	r8,40(r17)
 2000ca4:	40002326 	beq	r8,zero,2000d34 <__sflush_r+0xd0>
 2000ca8:	9c000017 	ldw	r16,0(r19)
 2000cac:	10c4000c 	andi	r3,r2,4096
 2000cb0:	98000015 	stw	zero,0(r19)
 2000cb4:	18004826 	beq	r3,zero,2000dd8 <__sflush_r+0x174>
 2000cb8:	89801417 	ldw	r6,80(r17)
 2000cbc:	10c0010c 	andi	r3,r2,4
 2000cc0:	18000626 	beq	r3,zero,2000cdc <__sflush_r+0x78>
 2000cc4:	88c00117 	ldw	r3,4(r17)
 2000cc8:	88800c17 	ldw	r2,48(r17)
 2000ccc:	30cdc83a 	sub	r6,r6,r3
 2000cd0:	10000226 	beq	r2,zero,2000cdc <__sflush_r+0x78>
 2000cd4:	88800f17 	ldw	r2,60(r17)
 2000cd8:	308dc83a 	sub	r6,r6,r2
 2000cdc:	89400717 	ldw	r5,28(r17)
 2000ce0:	000f883a 	mov	r7,zero
 2000ce4:	9809883a 	mov	r4,r19
 2000ce8:	403ee83a 	callr	r8
 2000cec:	00ffffc4 	movi	r3,-1
 2000cf0:	10c04426 	beq	r2,r3,2000e04 <__sflush_r+0x1a0>
 2000cf4:	88c0030b 	ldhu	r3,12(r17)
 2000cf8:	89000417 	ldw	r4,16(r17)
 2000cfc:	88000115 	stw	zero,4(r17)
 2000d00:	197dffcc 	andi	r5,r3,63487
 2000d04:	8940030d 	sth	r5,12(r17)
 2000d08:	89000015 	stw	r4,0(r17)
 2000d0c:	18c4000c 	andi	r3,r3,4096
 2000d10:	18002c1e 	bne	r3,zero,2000dc4 <__sflush_r+0x160>
 2000d14:	89400c17 	ldw	r5,48(r17)
 2000d18:	9c000015 	stw	r16,0(r19)
 2000d1c:	28000526 	beq	r5,zero,2000d34 <__sflush_r+0xd0>
 2000d20:	88801004 	addi	r2,r17,64
 2000d24:	28800226 	beq	r5,r2,2000d30 <__sflush_r+0xcc>
 2000d28:	9809883a 	mov	r4,r19
 2000d2c:	200173c0 	call	200173c <_free_r>
 2000d30:	88000c15 	stw	zero,48(r17)
 2000d34:	0005883a 	mov	r2,zero
 2000d38:	dfc00417 	ldw	ra,16(sp)
 2000d3c:	dcc00317 	ldw	r19,12(sp)
 2000d40:	dc800217 	ldw	r18,8(sp)
 2000d44:	dc400117 	ldw	r17,4(sp)
 2000d48:	dc000017 	ldw	r16,0(sp)
 2000d4c:	dec00504 	addi	sp,sp,20
 2000d50:	f800283a 	ret
 2000d54:	2c800417 	ldw	r18,16(r5)
 2000d58:	903ff626 	beq	r18,zero,2000d34 <__alt_mem_shared_ocm+0xfdfffd34>
 2000d5c:	2c000017 	ldw	r16,0(r5)
 2000d60:	108000cc 	andi	r2,r2,3
 2000d64:	2c800015 	stw	r18,0(r5)
 2000d68:	84a1c83a 	sub	r16,r16,r18
 2000d6c:	1000131e 	bne	r2,zero,2000dbc <__sflush_r+0x158>
 2000d70:	28800517 	ldw	r2,20(r5)
 2000d74:	88800215 	stw	r2,8(r17)
 2000d78:	04000316 	blt	zero,r16,2000d88 <__sflush_r+0x124>
 2000d7c:	003fed06 	br	2000d34 <__alt_mem_shared_ocm+0xfdfffd34>
 2000d80:	90a5883a 	add	r18,r18,r2
 2000d84:	043feb0e 	bge	zero,r16,2000d34 <__alt_mem_shared_ocm+0xfdfffd34>
 2000d88:	88800917 	ldw	r2,36(r17)
 2000d8c:	89400717 	ldw	r5,28(r17)
 2000d90:	800f883a 	mov	r7,r16
 2000d94:	900d883a 	mov	r6,r18
 2000d98:	9809883a 	mov	r4,r19
 2000d9c:	103ee83a 	callr	r2
 2000da0:	80a1c83a 	sub	r16,r16,r2
 2000da4:	00bff616 	blt	zero,r2,2000d80 <__alt_mem_shared_ocm+0xfdfffd80>
 2000da8:	88c0030b 	ldhu	r3,12(r17)
 2000dac:	00bfffc4 	movi	r2,-1
 2000db0:	18c01014 	ori	r3,r3,64
 2000db4:	88c0030d 	sth	r3,12(r17)
 2000db8:	003fdf06 	br	2000d38 <__alt_mem_shared_ocm+0xfdfffd38>
 2000dbc:	0005883a 	mov	r2,zero
 2000dc0:	003fec06 	br	2000d74 <__alt_mem_shared_ocm+0xfdfffd74>
 2000dc4:	88801415 	stw	r2,80(r17)
 2000dc8:	003fd206 	br	2000d14 <__alt_mem_shared_ocm+0xfdfffd14>
 2000dcc:	28c00f17 	ldw	r3,60(r5)
 2000dd0:	00ffb316 	blt	zero,r3,2000ca0 <__alt_mem_shared_ocm+0xfdfffca0>
 2000dd4:	003fd706 	br	2000d34 <__alt_mem_shared_ocm+0xfdfffd34>
 2000dd8:	89400717 	ldw	r5,28(r17)
 2000ddc:	000d883a 	mov	r6,zero
 2000de0:	01c00044 	movi	r7,1
 2000de4:	9809883a 	mov	r4,r19
 2000de8:	403ee83a 	callr	r8
 2000dec:	100d883a 	mov	r6,r2
 2000df0:	00bfffc4 	movi	r2,-1
 2000df4:	30801426 	beq	r6,r2,2000e48 <__sflush_r+0x1e4>
 2000df8:	8880030b 	ldhu	r2,12(r17)
 2000dfc:	8a000a17 	ldw	r8,40(r17)
 2000e00:	003fae06 	br	2000cbc <__alt_mem_shared_ocm+0xfdfffcbc>
 2000e04:	98c00017 	ldw	r3,0(r19)
 2000e08:	183fba26 	beq	r3,zero,2000cf4 <__alt_mem_shared_ocm+0xfdfffcf4>
 2000e0c:	01000744 	movi	r4,29
 2000e10:	19000626 	beq	r3,r4,2000e2c <__sflush_r+0x1c8>
 2000e14:	01000584 	movi	r4,22
 2000e18:	19000426 	beq	r3,r4,2000e2c <__sflush_r+0x1c8>
 2000e1c:	88c0030b 	ldhu	r3,12(r17)
 2000e20:	18c01014 	ori	r3,r3,64
 2000e24:	88c0030d 	sth	r3,12(r17)
 2000e28:	003fc306 	br	2000d38 <__alt_mem_shared_ocm+0xfdfffd38>
 2000e2c:	8880030b 	ldhu	r2,12(r17)
 2000e30:	88c00417 	ldw	r3,16(r17)
 2000e34:	88000115 	stw	zero,4(r17)
 2000e38:	10bdffcc 	andi	r2,r2,63487
 2000e3c:	8880030d 	sth	r2,12(r17)
 2000e40:	88c00015 	stw	r3,0(r17)
 2000e44:	003fb306 	br	2000d14 <__alt_mem_shared_ocm+0xfdfffd14>
 2000e48:	98800017 	ldw	r2,0(r19)
 2000e4c:	103fea26 	beq	r2,zero,2000df8 <__alt_mem_shared_ocm+0xfdfffdf8>
 2000e50:	00c00744 	movi	r3,29
 2000e54:	10c00226 	beq	r2,r3,2000e60 <__sflush_r+0x1fc>
 2000e58:	00c00584 	movi	r3,22
 2000e5c:	10c0031e 	bne	r2,r3,2000e6c <__sflush_r+0x208>
 2000e60:	9c000015 	stw	r16,0(r19)
 2000e64:	0005883a 	mov	r2,zero
 2000e68:	003fb306 	br	2000d38 <__alt_mem_shared_ocm+0xfdfffd38>
 2000e6c:	88c0030b 	ldhu	r3,12(r17)
 2000e70:	3005883a 	mov	r2,r6
 2000e74:	18c01014 	ori	r3,r3,64
 2000e78:	88c0030d 	sth	r3,12(r17)
 2000e7c:	003fae06 	br	2000d38 <__alt_mem_shared_ocm+0xfdfffd38>

02000e80 <_fflush_r>:
 2000e80:	defffd04 	addi	sp,sp,-12
 2000e84:	dc000115 	stw	r16,4(sp)
 2000e88:	dfc00215 	stw	ra,8(sp)
 2000e8c:	2021883a 	mov	r16,r4
 2000e90:	20000226 	beq	r4,zero,2000e9c <_fflush_r+0x1c>
 2000e94:	20800e17 	ldw	r2,56(r4)
 2000e98:	10000c26 	beq	r2,zero,2000ecc <_fflush_r+0x4c>
 2000e9c:	2880030f 	ldh	r2,12(r5)
 2000ea0:	1000051e 	bne	r2,zero,2000eb8 <_fflush_r+0x38>
 2000ea4:	0005883a 	mov	r2,zero
 2000ea8:	dfc00217 	ldw	ra,8(sp)
 2000eac:	dc000117 	ldw	r16,4(sp)
 2000eb0:	dec00304 	addi	sp,sp,12
 2000eb4:	f800283a 	ret
 2000eb8:	8009883a 	mov	r4,r16
 2000ebc:	dfc00217 	ldw	ra,8(sp)
 2000ec0:	dc000117 	ldw	r16,4(sp)
 2000ec4:	dec00304 	addi	sp,sp,12
 2000ec8:	2000c641 	jmpi	2000c64 <__sflush_r>
 2000ecc:	d9400015 	stw	r5,0(sp)
 2000ed0:	200125c0 	call	200125c <__sinit>
 2000ed4:	d9400017 	ldw	r5,0(sp)
 2000ed8:	003ff006 	br	2000e9c <__alt_mem_shared_ocm+0xfdfffe9c>

02000edc <fflush>:
 2000edc:	20000526 	beq	r4,zero,2000ef4 <fflush+0x18>
 2000ee0:	008080b4 	movhi	r2,514
 2000ee4:	10b12104 	addi	r2,r2,-15228
 2000ee8:	200b883a 	mov	r5,r4
 2000eec:	11000017 	ldw	r4,0(r2)
 2000ef0:	2000e801 	jmpi	2000e80 <_fflush_r>
 2000ef4:	008080b4 	movhi	r2,514
 2000ef8:	10b12004 	addi	r2,r2,-15232
 2000efc:	11000017 	ldw	r4,0(r2)
 2000f00:	01408034 	movhi	r5,512
 2000f04:	2943a004 	addi	r5,r5,3712
 2000f08:	2001fec1 	jmpi	2001fec <_fwalk_reent>

02000f0c <__fp_unlock>:
 2000f0c:	0005883a 	mov	r2,zero
 2000f10:	f800283a 	ret

02000f14 <_cleanup_r>:
 2000f14:	01408034 	movhi	r5,512
 2000f18:	2942d804 	addi	r5,r5,2912
 2000f1c:	2001fec1 	jmpi	2001fec <_fwalk_reent>

02000f20 <__sinit.part.1>:
 2000f20:	defff704 	addi	sp,sp,-36
 2000f24:	00c08034 	movhi	r3,512
 2000f28:	dfc00815 	stw	ra,32(sp)
 2000f2c:	ddc00715 	stw	r23,28(sp)
 2000f30:	dd800615 	stw	r22,24(sp)
 2000f34:	dd400515 	stw	r21,20(sp)
 2000f38:	dd000415 	stw	r20,16(sp)
 2000f3c:	dcc00315 	stw	r19,12(sp)
 2000f40:	dc800215 	stw	r18,8(sp)
 2000f44:	dc400115 	stw	r17,4(sp)
 2000f48:	dc000015 	stw	r16,0(sp)
 2000f4c:	18c3c504 	addi	r3,r3,3860
 2000f50:	24000117 	ldw	r16,4(r4)
 2000f54:	20c00f15 	stw	r3,60(r4)
 2000f58:	2080bb04 	addi	r2,r4,748
 2000f5c:	00c000c4 	movi	r3,3
 2000f60:	20c0b915 	stw	r3,740(r4)
 2000f64:	2080ba15 	stw	r2,744(r4)
 2000f68:	2000b815 	stw	zero,736(r4)
 2000f6c:	05c00204 	movi	r23,8
 2000f70:	00800104 	movi	r2,4
 2000f74:	2025883a 	mov	r18,r4
 2000f78:	b80d883a 	mov	r6,r23
 2000f7c:	81001704 	addi	r4,r16,92
 2000f80:	000b883a 	mov	r5,zero
 2000f84:	80000015 	stw	zero,0(r16)
 2000f88:	80000115 	stw	zero,4(r16)
 2000f8c:	80000215 	stw	zero,8(r16)
 2000f90:	8080030d 	sth	r2,12(r16)
 2000f94:	80001915 	stw	zero,100(r16)
 2000f98:	8000038d 	sth	zero,14(r16)
 2000f9c:	80000415 	stw	zero,16(r16)
 2000fa0:	80000515 	stw	zero,20(r16)
 2000fa4:	80000615 	stw	zero,24(r16)
 2000fa8:	2002cc00 	call	2002cc0 <memset>
 2000fac:	05808034 	movhi	r22,512
 2000fb0:	94400217 	ldw	r17,8(r18)
 2000fb4:	05408034 	movhi	r21,512
 2000fb8:	05008034 	movhi	r20,512
 2000fbc:	04c08034 	movhi	r19,512
 2000fc0:	b58cfd04 	addi	r22,r22,13300
 2000fc4:	ad4d1404 	addi	r21,r21,13392
 2000fc8:	a50d3304 	addi	r20,r20,13516
 2000fcc:	9ccd4a04 	addi	r19,r19,13608
 2000fd0:	85800815 	stw	r22,32(r16)
 2000fd4:	85400915 	stw	r21,36(r16)
 2000fd8:	85000a15 	stw	r20,40(r16)
 2000fdc:	84c00b15 	stw	r19,44(r16)
 2000fe0:	84000715 	stw	r16,28(r16)
 2000fe4:	00800284 	movi	r2,10
 2000fe8:	8880030d 	sth	r2,12(r17)
 2000fec:	00800044 	movi	r2,1
 2000ff0:	b80d883a 	mov	r6,r23
 2000ff4:	89001704 	addi	r4,r17,92
 2000ff8:	000b883a 	mov	r5,zero
 2000ffc:	88000015 	stw	zero,0(r17)
 2001000:	88000115 	stw	zero,4(r17)
 2001004:	88000215 	stw	zero,8(r17)
 2001008:	88001915 	stw	zero,100(r17)
 200100c:	8880038d 	sth	r2,14(r17)
 2001010:	88000415 	stw	zero,16(r17)
 2001014:	88000515 	stw	zero,20(r17)
 2001018:	88000615 	stw	zero,24(r17)
 200101c:	2002cc00 	call	2002cc0 <memset>
 2001020:	94000317 	ldw	r16,12(r18)
 2001024:	00800484 	movi	r2,18
 2001028:	8c400715 	stw	r17,28(r17)
 200102c:	8d800815 	stw	r22,32(r17)
 2001030:	8d400915 	stw	r21,36(r17)
 2001034:	8d000a15 	stw	r20,40(r17)
 2001038:	8cc00b15 	stw	r19,44(r17)
 200103c:	8080030d 	sth	r2,12(r16)
 2001040:	00800084 	movi	r2,2
 2001044:	80000015 	stw	zero,0(r16)
 2001048:	80000115 	stw	zero,4(r16)
 200104c:	80000215 	stw	zero,8(r16)
 2001050:	80001915 	stw	zero,100(r16)
 2001054:	8080038d 	sth	r2,14(r16)
 2001058:	80000415 	stw	zero,16(r16)
 200105c:	80000515 	stw	zero,20(r16)
 2001060:	80000615 	stw	zero,24(r16)
 2001064:	b80d883a 	mov	r6,r23
 2001068:	000b883a 	mov	r5,zero
 200106c:	81001704 	addi	r4,r16,92
 2001070:	2002cc00 	call	2002cc0 <memset>
 2001074:	00800044 	movi	r2,1
 2001078:	84000715 	stw	r16,28(r16)
 200107c:	85800815 	stw	r22,32(r16)
 2001080:	85400915 	stw	r21,36(r16)
 2001084:	85000a15 	stw	r20,40(r16)
 2001088:	84c00b15 	stw	r19,44(r16)
 200108c:	90800e15 	stw	r2,56(r18)
 2001090:	dfc00817 	ldw	ra,32(sp)
 2001094:	ddc00717 	ldw	r23,28(sp)
 2001098:	dd800617 	ldw	r22,24(sp)
 200109c:	dd400517 	ldw	r21,20(sp)
 20010a0:	dd000417 	ldw	r20,16(sp)
 20010a4:	dcc00317 	ldw	r19,12(sp)
 20010a8:	dc800217 	ldw	r18,8(sp)
 20010ac:	dc400117 	ldw	r17,4(sp)
 20010b0:	dc000017 	ldw	r16,0(sp)
 20010b4:	dec00904 	addi	sp,sp,36
 20010b8:	f800283a 	ret

020010bc <__fp_lock>:
 20010bc:	0005883a 	mov	r2,zero
 20010c0:	f800283a 	ret

020010c4 <__sfmoreglue>:
 20010c4:	defffc04 	addi	sp,sp,-16
 20010c8:	dc400115 	stw	r17,4(sp)
 20010cc:	2c7fffc4 	addi	r17,r5,-1
 20010d0:	8c401a24 	muli	r17,r17,104
 20010d4:	dc800215 	stw	r18,8(sp)
 20010d8:	2825883a 	mov	r18,r5
 20010dc:	89401d04 	addi	r5,r17,116
 20010e0:	dc000015 	stw	r16,0(sp)
 20010e4:	dfc00315 	stw	ra,12(sp)
 20010e8:	200236c0 	call	200236c <_malloc_r>
 20010ec:	1021883a 	mov	r16,r2
 20010f0:	10000726 	beq	r2,zero,2001110 <__sfmoreglue+0x4c>
 20010f4:	11000304 	addi	r4,r2,12
 20010f8:	10000015 	stw	zero,0(r2)
 20010fc:	14800115 	stw	r18,4(r2)
 2001100:	11000215 	stw	r4,8(r2)
 2001104:	89801a04 	addi	r6,r17,104
 2001108:	000b883a 	mov	r5,zero
 200110c:	2002cc00 	call	2002cc0 <memset>
 2001110:	8005883a 	mov	r2,r16
 2001114:	dfc00317 	ldw	ra,12(sp)
 2001118:	dc800217 	ldw	r18,8(sp)
 200111c:	dc400117 	ldw	r17,4(sp)
 2001120:	dc000017 	ldw	r16,0(sp)
 2001124:	dec00404 	addi	sp,sp,16
 2001128:	f800283a 	ret

0200112c <__sfp>:
 200112c:	defffb04 	addi	sp,sp,-20
 2001130:	dc000015 	stw	r16,0(sp)
 2001134:	040080b4 	movhi	r16,514
 2001138:	84312004 	addi	r16,r16,-15232
 200113c:	dcc00315 	stw	r19,12(sp)
 2001140:	2027883a 	mov	r19,r4
 2001144:	81000017 	ldw	r4,0(r16)
 2001148:	dfc00415 	stw	ra,16(sp)
 200114c:	dc800215 	stw	r18,8(sp)
 2001150:	20800e17 	ldw	r2,56(r4)
 2001154:	dc400115 	stw	r17,4(sp)
 2001158:	1000021e 	bne	r2,zero,2001164 <__sfp+0x38>
 200115c:	2000f200 	call	2000f20 <__sinit.part.1>
 2001160:	81000017 	ldw	r4,0(r16)
 2001164:	2480b804 	addi	r18,r4,736
 2001168:	047fffc4 	movi	r17,-1
 200116c:	91000117 	ldw	r4,4(r18)
 2001170:	94000217 	ldw	r16,8(r18)
 2001174:	213fffc4 	addi	r4,r4,-1
 2001178:	20000a16 	blt	r4,zero,20011a4 <__sfp+0x78>
 200117c:	8080030f 	ldh	r2,12(r16)
 2001180:	10000c26 	beq	r2,zero,20011b4 <__sfp+0x88>
 2001184:	80c01d04 	addi	r3,r16,116
 2001188:	00000206 	br	2001194 <__sfp+0x68>
 200118c:	18bfe60f 	ldh	r2,-104(r3)
 2001190:	10000826 	beq	r2,zero,20011b4 <__sfp+0x88>
 2001194:	213fffc4 	addi	r4,r4,-1
 2001198:	1c3ffd04 	addi	r16,r3,-12
 200119c:	18c01a04 	addi	r3,r3,104
 20011a0:	247ffa1e 	bne	r4,r17,200118c <__alt_mem_shared_ocm+0xfe00018c>
 20011a4:	90800017 	ldw	r2,0(r18)
 20011a8:	10001d26 	beq	r2,zero,2001220 <__sfp+0xf4>
 20011ac:	1025883a 	mov	r18,r2
 20011b0:	003fee06 	br	200116c <__alt_mem_shared_ocm+0xfe00016c>
 20011b4:	00bfffc4 	movi	r2,-1
 20011b8:	8080038d 	sth	r2,14(r16)
 20011bc:	00800044 	movi	r2,1
 20011c0:	8080030d 	sth	r2,12(r16)
 20011c4:	80001915 	stw	zero,100(r16)
 20011c8:	80000015 	stw	zero,0(r16)
 20011cc:	80000215 	stw	zero,8(r16)
 20011d0:	80000115 	stw	zero,4(r16)
 20011d4:	80000415 	stw	zero,16(r16)
 20011d8:	80000515 	stw	zero,20(r16)
 20011dc:	80000615 	stw	zero,24(r16)
 20011e0:	01800204 	movi	r6,8
 20011e4:	000b883a 	mov	r5,zero
 20011e8:	81001704 	addi	r4,r16,92
 20011ec:	2002cc00 	call	2002cc0 <memset>
 20011f0:	8005883a 	mov	r2,r16
 20011f4:	80000c15 	stw	zero,48(r16)
 20011f8:	80000d15 	stw	zero,52(r16)
 20011fc:	80001115 	stw	zero,68(r16)
 2001200:	80001215 	stw	zero,72(r16)
 2001204:	dfc00417 	ldw	ra,16(sp)
 2001208:	dcc00317 	ldw	r19,12(sp)
 200120c:	dc800217 	ldw	r18,8(sp)
 2001210:	dc400117 	ldw	r17,4(sp)
 2001214:	dc000017 	ldw	r16,0(sp)
 2001218:	dec00504 	addi	sp,sp,20
 200121c:	f800283a 	ret
 2001220:	01400104 	movi	r5,4
 2001224:	9809883a 	mov	r4,r19
 2001228:	20010c40 	call	20010c4 <__sfmoreglue>
 200122c:	90800015 	stw	r2,0(r18)
 2001230:	103fde1e 	bne	r2,zero,20011ac <__alt_mem_shared_ocm+0xfe0001ac>
 2001234:	00800304 	movi	r2,12
 2001238:	98800015 	stw	r2,0(r19)
 200123c:	0005883a 	mov	r2,zero
 2001240:	003ff006 	br	2001204 <__alt_mem_shared_ocm+0xfe000204>

02001244 <_cleanup>:
 2001244:	008080b4 	movhi	r2,514
 2001248:	10b12004 	addi	r2,r2,-15232
 200124c:	11000017 	ldw	r4,0(r2)
 2001250:	01408034 	movhi	r5,512
 2001254:	2942d804 	addi	r5,r5,2912
 2001258:	2001fec1 	jmpi	2001fec <_fwalk_reent>

0200125c <__sinit>:
 200125c:	20800e17 	ldw	r2,56(r4)
 2001260:	10000126 	beq	r2,zero,2001268 <__sinit+0xc>
 2001264:	f800283a 	ret
 2001268:	2000f201 	jmpi	2000f20 <__sinit.part.1>

0200126c <__sfp_lock_acquire>:
 200126c:	f800283a 	ret

02001270 <__sfp_lock_release>:
 2001270:	f800283a 	ret

02001274 <__sinit_lock_acquire>:
 2001274:	f800283a 	ret

02001278 <__sinit_lock_release>:
 2001278:	f800283a 	ret

0200127c <__fp_lock_all>:
 200127c:	008080b4 	movhi	r2,514
 2001280:	10b12104 	addi	r2,r2,-15228
 2001284:	11000017 	ldw	r4,0(r2)
 2001288:	01408034 	movhi	r5,512
 200128c:	29442f04 	addi	r5,r5,4284
 2001290:	2001f281 	jmpi	2001f28 <_fwalk>

02001294 <__fp_unlock_all>:
 2001294:	008080b4 	movhi	r2,514
 2001298:	10b12104 	addi	r2,r2,-15228
 200129c:	11000017 	ldw	r4,0(r2)
 20012a0:	01408034 	movhi	r5,512
 20012a4:	2943c304 	addi	r5,r5,3852
 20012a8:	2001f281 	jmpi	2001f28 <_fwalk>

020012ac <_fopen_r>:
 20012ac:	defffa04 	addi	sp,sp,-24
 20012b0:	3005883a 	mov	r2,r6
 20012b4:	dcc00415 	stw	r19,16(sp)
 20012b8:	d80d883a 	mov	r6,sp
 20012bc:	2827883a 	mov	r19,r5
 20012c0:	100b883a 	mov	r5,r2
 20012c4:	dc800315 	stw	r18,12(sp)
 20012c8:	dfc00515 	stw	ra,20(sp)
 20012cc:	dc400215 	stw	r17,8(sp)
 20012d0:	dc000115 	stw	r16,4(sp)
 20012d4:	2025883a 	mov	r18,r4
 20012d8:	200ad8c0 	call	200ad8c <__sflags>
 20012dc:	10002726 	beq	r2,zero,200137c <_fopen_r+0xd0>
 20012e0:	9009883a 	mov	r4,r18
 20012e4:	1023883a 	mov	r17,r2
 20012e8:	200112c0 	call	200112c <__sfp>
 20012ec:	1021883a 	mov	r16,r2
 20012f0:	10002226 	beq	r2,zero,200137c <_fopen_r+0xd0>
 20012f4:	d9800017 	ldw	r6,0(sp)
 20012f8:	01c06d84 	movi	r7,438
 20012fc:	980b883a 	mov	r5,r19
 2001300:	9009883a 	mov	r4,r18
 2001304:	2002de80 	call	2002de8 <_open_r>
 2001308:	10001916 	blt	r2,zero,2001370 <_fopen_r+0xc4>
 200130c:	8080038d 	sth	r2,14(r16)
 2001310:	00808034 	movhi	r2,512
 2001314:	108cfd04 	addi	r2,r2,13300
 2001318:	80800815 	stw	r2,32(r16)
 200131c:	00808034 	movhi	r2,512
 2001320:	108d1404 	addi	r2,r2,13392
 2001324:	80800915 	stw	r2,36(r16)
 2001328:	00808034 	movhi	r2,512
 200132c:	108d3304 	addi	r2,r2,13516
 2001330:	80800a15 	stw	r2,40(r16)
 2001334:	00808034 	movhi	r2,512
 2001338:	108d4a04 	addi	r2,r2,13608
 200133c:	8440030d 	sth	r17,12(r16)
 2001340:	84000715 	stw	r16,28(r16)
 2001344:	80800b15 	stw	r2,44(r16)
 2001348:	8c40400c 	andi	r17,r17,256
 200134c:	88000d1e 	bne	r17,zero,2001384 <_fopen_r+0xd8>
 2001350:	8005883a 	mov	r2,r16
 2001354:	dfc00517 	ldw	ra,20(sp)
 2001358:	dcc00417 	ldw	r19,16(sp)
 200135c:	dc800317 	ldw	r18,12(sp)
 2001360:	dc400217 	ldw	r17,8(sp)
 2001364:	dc000117 	ldw	r16,4(sp)
 2001368:	dec00604 	addi	sp,sp,24
 200136c:	f800283a 	ret
 2001370:	200126c0 	call	200126c <__sfp_lock_acquire>
 2001374:	8000030d 	sth	zero,12(r16)
 2001378:	20012700 	call	2001270 <__sfp_lock_release>
 200137c:	0005883a 	mov	r2,zero
 2001380:	003ff406 	br	2001354 <__alt_mem_shared_ocm+0xfe000354>
 2001384:	01c00084 	movi	r7,2
 2001388:	000d883a 	mov	r6,zero
 200138c:	800b883a 	mov	r5,r16
 2001390:	9009883a 	mov	r4,r18
 2001394:	2001a4c0 	call	2001a4c <_fseek_r>
 2001398:	8005883a 	mov	r2,r16
 200139c:	003fed06 	br	2001354 <__alt_mem_shared_ocm+0xfe000354>

020013a0 <fopen>:
 20013a0:	008080b4 	movhi	r2,514
 20013a4:	10b12104 	addi	r2,r2,-15228
 20013a8:	280d883a 	mov	r6,r5
 20013ac:	200b883a 	mov	r5,r4
 20013b0:	11000017 	ldw	r4,0(r2)
 20013b4:	20012ac1 	jmpi	20012ac <_fopen_r>

020013b8 <_fread_r>:
 20013b8:	defff404 	addi	sp,sp,-48
 20013bc:	dd800815 	stw	r22,32(sp)
 20013c0:	39ad383a 	mul	r22,r7,r6
 20013c4:	dc000215 	stw	r16,8(sp)
 20013c8:	dfc00b15 	stw	ra,44(sp)
 20013cc:	df000a15 	stw	fp,40(sp)
 20013d0:	ddc00915 	stw	r23,36(sp)
 20013d4:	dd400715 	stw	r21,28(sp)
 20013d8:	dd000615 	stw	r20,24(sp)
 20013dc:	dcc00515 	stw	r19,20(sp)
 20013e0:	dc800415 	stw	r18,16(sp)
 20013e4:	dc400315 	stw	r17,12(sp)
 20013e8:	dc000c17 	ldw	r16,48(sp)
 20013ec:	b0003b26 	beq	r22,zero,20014dc <_fread_r+0x124>
 20013f0:	302f883a 	mov	r23,r6
 20013f4:	382b883a 	mov	r21,r7
 20013f8:	2029883a 	mov	r20,r4
 20013fc:	2827883a 	mov	r19,r5
 2001400:	20000226 	beq	r4,zero,200140c <_fread_r+0x54>
 2001404:	20800e17 	ldw	r2,56(r4)
 2001408:	10006e26 	beq	r2,zero,20015c4 <_fread_r+0x20c>
 200140c:	8080030b 	ldhu	r2,12(r16)
 2001410:	10c8000c 	andi	r3,r2,8192
 2001414:	1800061e 	bne	r3,zero,2001430 <_fread_r+0x78>
 2001418:	81001917 	ldw	r4,100(r16)
 200141c:	00f7ffc4 	movi	r3,-8193
 2001420:	10880014 	ori	r2,r2,8192
 2001424:	20c6703a 	and	r3,r4,r3
 2001428:	8080030d 	sth	r2,12(r16)
 200142c:	80c01915 	stw	r3,100(r16)
 2001430:	84400117 	ldw	r17,4(r16)
 2001434:	88005f16 	blt	r17,zero,20015b4 <_fread_r+0x1fc>
 2001438:	8809883a 	mov	r4,r17
 200143c:	1080008c 	andi	r2,r2,2
 2001440:	1000281e 	bne	r2,zero,20014e4 <_fread_r+0x12c>
 2001444:	b025883a 	mov	r18,r22
 2001448:	00000b06 	br	2001478 <_fread_r+0xc0>
 200144c:	2002b780 	call	2002b78 <memcpy>
 2001450:	80800017 	ldw	r2,0(r16)
 2001454:	9c67883a 	add	r19,r19,r17
 2001458:	9465c83a 	sub	r18,r18,r17
 200145c:	1463883a 	add	r17,r2,r17
 2001460:	800b883a 	mov	r5,r16
 2001464:	a009883a 	mov	r4,r20
 2001468:	84400015 	stw	r17,0(r16)
 200146c:	2002fa40 	call	2002fa4 <__srefill_r>
 2001470:	10004c1e 	bne	r2,zero,20015a4 <_fread_r+0x1ec>
 2001474:	84400117 	ldw	r17,4(r16)
 2001478:	880d883a 	mov	r6,r17
 200147c:	9809883a 	mov	r4,r19
 2001480:	81400017 	ldw	r5,0(r16)
 2001484:	8cbff136 	bltu	r17,r18,200144c <__alt_mem_shared_ocm+0xfe00044c>
 2001488:	900d883a 	mov	r6,r18
 200148c:	2002b780 	call	2002b78 <memcpy>
 2001490:	80c00117 	ldw	r3,4(r16)
 2001494:	81000017 	ldw	r4,0(r16)
 2001498:	a805883a 	mov	r2,r21
 200149c:	1c87c83a 	sub	r3,r3,r18
 20014a0:	24a5883a 	add	r18,r4,r18
 20014a4:	80c00115 	stw	r3,4(r16)
 20014a8:	84800015 	stw	r18,0(r16)
 20014ac:	dfc00b17 	ldw	ra,44(sp)
 20014b0:	df000a17 	ldw	fp,40(sp)
 20014b4:	ddc00917 	ldw	r23,36(sp)
 20014b8:	dd800817 	ldw	r22,32(sp)
 20014bc:	dd400717 	ldw	r21,28(sp)
 20014c0:	dd000617 	ldw	r20,24(sp)
 20014c4:	dcc00517 	ldw	r19,20(sp)
 20014c8:	dc800417 	ldw	r18,16(sp)
 20014cc:	dc400317 	ldw	r17,12(sp)
 20014d0:	dc000217 	ldw	r16,8(sp)
 20014d4:	dec00c04 	addi	sp,sp,48
 20014d8:	f800283a 	ret
 20014dc:	0005883a 	mov	r2,zero
 20014e0:	003ff206 	br	20014ac <__alt_mem_shared_ocm+0xfe0004ac>
 20014e4:	b007883a 	mov	r3,r22
 20014e8:	2580012e 	bgeu	r4,r22,20014f0 <_fread_r+0x138>
 20014ec:	2007883a 	mov	r3,r4
 20014f0:	81400017 	ldw	r5,0(r16)
 20014f4:	180d883a 	mov	r6,r3
 20014f8:	9809883a 	mov	r4,r19
 20014fc:	d8c00115 	stw	r3,4(sp)
 2001500:	2002b780 	call	2002b78 <memcpy>
 2001504:	d8c00117 	ldw	r3,4(sp)
 2001508:	84400017 	ldw	r17,0(r16)
 200150c:	80800117 	ldw	r2,4(r16)
 2001510:	81400c17 	ldw	r5,48(r16)
 2001514:	88e3883a 	add	r17,r17,r3
 2001518:	10c5c83a 	sub	r2,r2,r3
 200151c:	84400015 	stw	r17,0(r16)
 2001520:	80800115 	stw	r2,4(r16)
 2001524:	b0e5c83a 	sub	r18,r22,r3
 2001528:	28002b26 	beq	r5,zero,20015d8 <_fread_r+0x220>
 200152c:	90002b26 	beq	r18,zero,20015dc <_fread_r+0x224>
 2001530:	80801004 	addi	r2,r16,64
 2001534:	28800526 	beq	r5,r2,200154c <_fread_r+0x194>
 2001538:	a009883a 	mov	r4,r20
 200153c:	d8c00115 	stw	r3,4(sp)
 2001540:	200173c0 	call	200173c <_free_r>
 2001544:	d8c00117 	ldw	r3,4(sp)
 2001548:	84400017 	ldw	r17,0(r16)
 200154c:	80000c15 	stw	zero,48(r16)
 2001550:	80800517 	ldw	r2,20(r16)
 2001554:	87000417 	ldw	fp,16(r16)
 2001558:	98e7883a 	add	r19,r19,r3
 200155c:	d8800015 	stw	r2,0(sp)
 2001560:	00000106 	br	2001568 <_fread_r+0x1b0>
 2001564:	90001d26 	beq	r18,zero,20015dc <_fread_r+0x224>
 2001568:	84c00415 	stw	r19,16(r16)
 200156c:	84800515 	stw	r18,20(r16)
 2001570:	84c00015 	stw	r19,0(r16)
 2001574:	a009883a 	mov	r4,r20
 2001578:	800b883a 	mov	r5,r16
 200157c:	2002fa40 	call	2002fa4 <__srefill_r>
 2001580:	d9000017 	ldw	r4,0(sp)
 2001584:	80c00117 	ldw	r3,4(r16)
 2001588:	87000415 	stw	fp,16(r16)
 200158c:	81000515 	stw	r4,20(r16)
 2001590:	84400015 	stw	r17,0(r16)
 2001594:	80000115 	stw	zero,4(r16)
 2001598:	90e5c83a 	sub	r18,r18,r3
 200159c:	98e7883a 	add	r19,r19,r3
 20015a0:	103ff026 	beq	r2,zero,2001564 <__alt_mem_shared_ocm+0xfe000564>
 20015a4:	b80b883a 	mov	r5,r23
 20015a8:	b489c83a 	sub	r4,r22,r18
 20015ac:	2013fd00 	call	2013fd0 <__udivsi3>
 20015b0:	003fbe06 	br	20014ac <__alt_mem_shared_ocm+0xfe0004ac>
 20015b4:	80000115 	stw	zero,4(r16)
 20015b8:	0009883a 	mov	r4,zero
 20015bc:	0023883a 	mov	r17,zero
 20015c0:	003f9e06 	br	200143c <__alt_mem_shared_ocm+0xfe00043c>
 20015c4:	200125c0 	call	200125c <__sinit>
 20015c8:	8080030b 	ldhu	r2,12(r16)
 20015cc:	10c8000c 	andi	r3,r2,8192
 20015d0:	183f971e 	bne	r3,zero,2001430 <__alt_mem_shared_ocm+0xfe000430>
 20015d4:	003f9006 	br	2001418 <__alt_mem_shared_ocm+0xfe000418>
 20015d8:	903fdd1e 	bne	r18,zero,2001550 <__alt_mem_shared_ocm+0xfe000550>
 20015dc:	a805883a 	mov	r2,r21
 20015e0:	003fb206 	br	20014ac <__alt_mem_shared_ocm+0xfe0004ac>

020015e4 <fread>:
 20015e4:	defffe04 	addi	sp,sp,-8
 20015e8:	008080b4 	movhi	r2,514
 20015ec:	d9c00015 	stw	r7,0(sp)
 20015f0:	10b12104 	addi	r2,r2,-15228
 20015f4:	300f883a 	mov	r7,r6
 20015f8:	280d883a 	mov	r6,r5
 20015fc:	200b883a 	mov	r5,r4
 2001600:	11000017 	ldw	r4,0(r2)
 2001604:	dfc00115 	stw	ra,4(sp)
 2001608:	20013b80 	call	20013b8 <_fread_r>
 200160c:	dfc00117 	ldw	ra,4(sp)
 2001610:	dec00204 	addi	sp,sp,8
 2001614:	f800283a 	ret

02001618 <_malloc_trim_r>:
 2001618:	defffb04 	addi	sp,sp,-20
 200161c:	dcc00315 	stw	r19,12(sp)
 2001620:	04c080b4 	movhi	r19,514
 2001624:	dc800215 	stw	r18,8(sp)
 2001628:	dc400115 	stw	r17,4(sp)
 200162c:	dc000015 	stw	r16,0(sp)
 2001630:	dfc00415 	stw	ra,16(sp)
 2001634:	2821883a 	mov	r16,r5
 2001638:	9ceb6704 	addi	r19,r19,-21092
 200163c:	2025883a 	mov	r18,r4
 2001640:	20170140 	call	2017014 <__malloc_lock>
 2001644:	98800217 	ldw	r2,8(r19)
 2001648:	14400117 	ldw	r17,4(r2)
 200164c:	00bfff04 	movi	r2,-4
 2001650:	88a2703a 	and	r17,r17,r2
 2001654:	8c21c83a 	sub	r16,r17,r16
 2001658:	8403fbc4 	addi	r16,r16,4079
 200165c:	8020d33a 	srli	r16,r16,12
 2001660:	0083ffc4 	movi	r2,4095
 2001664:	843fffc4 	addi	r16,r16,-1
 2001668:	8020933a 	slli	r16,r16,12
 200166c:	1400060e 	bge	r2,r16,2001688 <_malloc_trim_r+0x70>
 2001670:	000b883a 	mov	r5,zero
 2001674:	9009883a 	mov	r4,r18
 2001678:	20031780 	call	2003178 <_sbrk_r>
 200167c:	98c00217 	ldw	r3,8(r19)
 2001680:	1c47883a 	add	r3,r3,r17
 2001684:	10c00a26 	beq	r2,r3,20016b0 <_malloc_trim_r+0x98>
 2001688:	9009883a 	mov	r4,r18
 200168c:	20170380 	call	2017038 <__malloc_unlock>
 2001690:	0005883a 	mov	r2,zero
 2001694:	dfc00417 	ldw	ra,16(sp)
 2001698:	dcc00317 	ldw	r19,12(sp)
 200169c:	dc800217 	ldw	r18,8(sp)
 20016a0:	dc400117 	ldw	r17,4(sp)
 20016a4:	dc000017 	ldw	r16,0(sp)
 20016a8:	dec00504 	addi	sp,sp,20
 20016ac:	f800283a 	ret
 20016b0:	040bc83a 	sub	r5,zero,r16
 20016b4:	9009883a 	mov	r4,r18
 20016b8:	20031780 	call	2003178 <_sbrk_r>
 20016bc:	00ffffc4 	movi	r3,-1
 20016c0:	10c00d26 	beq	r2,r3,20016f8 <_malloc_trim_r+0xe0>
 20016c4:	00c080b4 	movhi	r3,514
 20016c8:	18f83d04 	addi	r3,r3,-7948
 20016cc:	18800017 	ldw	r2,0(r3)
 20016d0:	99000217 	ldw	r4,8(r19)
 20016d4:	8c23c83a 	sub	r17,r17,r16
 20016d8:	8c400054 	ori	r17,r17,1
 20016dc:	1421c83a 	sub	r16,r2,r16
 20016e0:	24400115 	stw	r17,4(r4)
 20016e4:	9009883a 	mov	r4,r18
 20016e8:	1c000015 	stw	r16,0(r3)
 20016ec:	20170380 	call	2017038 <__malloc_unlock>
 20016f0:	00800044 	movi	r2,1
 20016f4:	003fe706 	br	2001694 <__alt_mem_shared_ocm+0xfe000694>
 20016f8:	000b883a 	mov	r5,zero
 20016fc:	9009883a 	mov	r4,r18
 2001700:	20031780 	call	2003178 <_sbrk_r>
 2001704:	99000217 	ldw	r4,8(r19)
 2001708:	014003c4 	movi	r5,15
 200170c:	1107c83a 	sub	r3,r2,r4
 2001710:	28ffdd0e 	bge	r5,r3,2001688 <__alt_mem_shared_ocm+0xfe000688>
 2001714:	014080b4 	movhi	r5,514
 2001718:	29712204 	addi	r5,r5,-15224
 200171c:	29400017 	ldw	r5,0(r5)
 2001720:	18c00054 	ori	r3,r3,1
 2001724:	20c00115 	stw	r3,4(r4)
 2001728:	00c080b4 	movhi	r3,514
 200172c:	1145c83a 	sub	r2,r2,r5
 2001730:	18f83d04 	addi	r3,r3,-7948
 2001734:	18800015 	stw	r2,0(r3)
 2001738:	003fd306 	br	2001688 <__alt_mem_shared_ocm+0xfe000688>

0200173c <_free_r>:
 200173c:	28004126 	beq	r5,zero,2001844 <_free_r+0x108>
 2001740:	defffd04 	addi	sp,sp,-12
 2001744:	dc400115 	stw	r17,4(sp)
 2001748:	dc000015 	stw	r16,0(sp)
 200174c:	2023883a 	mov	r17,r4
 2001750:	2821883a 	mov	r16,r5
 2001754:	dfc00215 	stw	ra,8(sp)
 2001758:	20170140 	call	2017014 <__malloc_lock>
 200175c:	81ffff17 	ldw	r7,-4(r16)
 2001760:	00bfff84 	movi	r2,-2
 2001764:	010080b4 	movhi	r4,514
 2001768:	81bffe04 	addi	r6,r16,-8
 200176c:	3884703a 	and	r2,r7,r2
 2001770:	212b6704 	addi	r4,r4,-21092
 2001774:	308b883a 	add	r5,r6,r2
 2001778:	2a400117 	ldw	r9,4(r5)
 200177c:	22000217 	ldw	r8,8(r4)
 2001780:	00ffff04 	movi	r3,-4
 2001784:	48c6703a 	and	r3,r9,r3
 2001788:	2a005726 	beq	r5,r8,20018e8 <_free_r+0x1ac>
 200178c:	28c00115 	stw	r3,4(r5)
 2001790:	39c0004c 	andi	r7,r7,1
 2001794:	3800091e 	bne	r7,zero,20017bc <_free_r+0x80>
 2001798:	823ffe17 	ldw	r8,-8(r16)
 200179c:	22400204 	addi	r9,r4,8
 20017a0:	320dc83a 	sub	r6,r6,r8
 20017a4:	31c00217 	ldw	r7,8(r6)
 20017a8:	1205883a 	add	r2,r2,r8
 20017ac:	3a406526 	beq	r7,r9,2001944 <_free_r+0x208>
 20017b0:	32000317 	ldw	r8,12(r6)
 20017b4:	3a000315 	stw	r8,12(r7)
 20017b8:	41c00215 	stw	r7,8(r8)
 20017bc:	28cf883a 	add	r7,r5,r3
 20017c0:	39c00117 	ldw	r7,4(r7)
 20017c4:	39c0004c 	andi	r7,r7,1
 20017c8:	38003a26 	beq	r7,zero,20018b4 <_free_r+0x178>
 20017cc:	10c00054 	ori	r3,r2,1
 20017d0:	30c00115 	stw	r3,4(r6)
 20017d4:	3087883a 	add	r3,r6,r2
 20017d8:	18800015 	stw	r2,0(r3)
 20017dc:	00c07fc4 	movi	r3,511
 20017e0:	18801936 	bltu	r3,r2,2001848 <_free_r+0x10c>
 20017e4:	1004d0fa 	srli	r2,r2,3
 20017e8:	01c00044 	movi	r7,1
 20017ec:	21400117 	ldw	r5,4(r4)
 20017f0:	10c00044 	addi	r3,r2,1
 20017f4:	18c7883a 	add	r3,r3,r3
 20017f8:	1005d0ba 	srai	r2,r2,2
 20017fc:	18c7883a 	add	r3,r3,r3
 2001800:	18c7883a 	add	r3,r3,r3
 2001804:	1907883a 	add	r3,r3,r4
 2001808:	3884983a 	sll	r2,r7,r2
 200180c:	19c00017 	ldw	r7,0(r3)
 2001810:	1a3ffe04 	addi	r8,r3,-8
 2001814:	1144b03a 	or	r2,r2,r5
 2001818:	32000315 	stw	r8,12(r6)
 200181c:	31c00215 	stw	r7,8(r6)
 2001820:	20800115 	stw	r2,4(r4)
 2001824:	19800015 	stw	r6,0(r3)
 2001828:	39800315 	stw	r6,12(r7)
 200182c:	8809883a 	mov	r4,r17
 2001830:	dfc00217 	ldw	ra,8(sp)
 2001834:	dc400117 	ldw	r17,4(sp)
 2001838:	dc000017 	ldw	r16,0(sp)
 200183c:	dec00304 	addi	sp,sp,12
 2001840:	20170381 	jmpi	2017038 <__malloc_unlock>
 2001844:	f800283a 	ret
 2001848:	100ad27a 	srli	r5,r2,9
 200184c:	00c00104 	movi	r3,4
 2001850:	19404a36 	bltu	r3,r5,200197c <_free_r+0x240>
 2001854:	100ad1ba 	srli	r5,r2,6
 2001858:	28c00e44 	addi	r3,r5,57
 200185c:	18c7883a 	add	r3,r3,r3
 2001860:	29400e04 	addi	r5,r5,56
 2001864:	18c7883a 	add	r3,r3,r3
 2001868:	18c7883a 	add	r3,r3,r3
 200186c:	1909883a 	add	r4,r3,r4
 2001870:	20c00017 	ldw	r3,0(r4)
 2001874:	01c080b4 	movhi	r7,514
 2001878:	213ffe04 	addi	r4,r4,-8
 200187c:	39eb6704 	addi	r7,r7,-21092
 2001880:	20c04426 	beq	r4,r3,2001994 <_free_r+0x258>
 2001884:	01ffff04 	movi	r7,-4
 2001888:	19400117 	ldw	r5,4(r3)
 200188c:	29ca703a 	and	r5,r5,r7
 2001890:	1140022e 	bgeu	r2,r5,200189c <_free_r+0x160>
 2001894:	18c00217 	ldw	r3,8(r3)
 2001898:	20fffb1e 	bne	r4,r3,2001888 <__alt_mem_shared_ocm+0xfe000888>
 200189c:	19000317 	ldw	r4,12(r3)
 20018a0:	31000315 	stw	r4,12(r6)
 20018a4:	30c00215 	stw	r3,8(r6)
 20018a8:	21800215 	stw	r6,8(r4)
 20018ac:	19800315 	stw	r6,12(r3)
 20018b0:	003fde06 	br	200182c <__alt_mem_shared_ocm+0xfe00082c>
 20018b4:	29c00217 	ldw	r7,8(r5)
 20018b8:	10c5883a 	add	r2,r2,r3
 20018bc:	00c080b4 	movhi	r3,514
 20018c0:	18eb6904 	addi	r3,r3,-21084
 20018c4:	38c03b26 	beq	r7,r3,20019b4 <_free_r+0x278>
 20018c8:	2a000317 	ldw	r8,12(r5)
 20018cc:	11400054 	ori	r5,r2,1
 20018d0:	3087883a 	add	r3,r6,r2
 20018d4:	3a000315 	stw	r8,12(r7)
 20018d8:	41c00215 	stw	r7,8(r8)
 20018dc:	31400115 	stw	r5,4(r6)
 20018e0:	18800015 	stw	r2,0(r3)
 20018e4:	003fbd06 	br	20017dc <__alt_mem_shared_ocm+0xfe0007dc>
 20018e8:	39c0004c 	andi	r7,r7,1
 20018ec:	10c5883a 	add	r2,r2,r3
 20018f0:	3800071e 	bne	r7,zero,2001910 <_free_r+0x1d4>
 20018f4:	81fffe17 	ldw	r7,-8(r16)
 20018f8:	31cdc83a 	sub	r6,r6,r7
 20018fc:	30c00317 	ldw	r3,12(r6)
 2001900:	31400217 	ldw	r5,8(r6)
 2001904:	11c5883a 	add	r2,r2,r7
 2001908:	28c00315 	stw	r3,12(r5)
 200190c:	19400215 	stw	r5,8(r3)
 2001910:	10c00054 	ori	r3,r2,1
 2001914:	30c00115 	stw	r3,4(r6)
 2001918:	00c080b4 	movhi	r3,514
 200191c:	18f12304 	addi	r3,r3,-15220
 2001920:	18c00017 	ldw	r3,0(r3)
 2001924:	21800215 	stw	r6,8(r4)
 2001928:	10ffc036 	bltu	r2,r3,200182c <__alt_mem_shared_ocm+0xfe00082c>
 200192c:	008080b4 	movhi	r2,514
 2001930:	10b83204 	addi	r2,r2,-7992
 2001934:	11400017 	ldw	r5,0(r2)
 2001938:	8809883a 	mov	r4,r17
 200193c:	20016180 	call	2001618 <_malloc_trim_r>
 2001940:	003fba06 	br	200182c <__alt_mem_shared_ocm+0xfe00082c>
 2001944:	28c9883a 	add	r4,r5,r3
 2001948:	21000117 	ldw	r4,4(r4)
 200194c:	2100004c 	andi	r4,r4,1
 2001950:	2000391e 	bne	r4,zero,2001a38 <_free_r+0x2fc>
 2001954:	29c00217 	ldw	r7,8(r5)
 2001958:	29000317 	ldw	r4,12(r5)
 200195c:	1885883a 	add	r2,r3,r2
 2001960:	10c00054 	ori	r3,r2,1
 2001964:	39000315 	stw	r4,12(r7)
 2001968:	21c00215 	stw	r7,8(r4)
 200196c:	30c00115 	stw	r3,4(r6)
 2001970:	308d883a 	add	r6,r6,r2
 2001974:	30800015 	stw	r2,0(r6)
 2001978:	003fac06 	br	200182c <__alt_mem_shared_ocm+0xfe00082c>
 200197c:	00c00504 	movi	r3,20
 2001980:	19401536 	bltu	r3,r5,20019d8 <_free_r+0x29c>
 2001984:	28c01704 	addi	r3,r5,92
 2001988:	18c7883a 	add	r3,r3,r3
 200198c:	294016c4 	addi	r5,r5,91
 2001990:	003fb406 	br	2001864 <__alt_mem_shared_ocm+0xfe000864>
 2001994:	280bd0ba 	srai	r5,r5,2
 2001998:	00c00044 	movi	r3,1
 200199c:	38800117 	ldw	r2,4(r7)
 20019a0:	194a983a 	sll	r5,r3,r5
 20019a4:	2007883a 	mov	r3,r4
 20019a8:	2884b03a 	or	r2,r5,r2
 20019ac:	38800115 	stw	r2,4(r7)
 20019b0:	003fbb06 	br	20018a0 <__alt_mem_shared_ocm+0xfe0008a0>
 20019b4:	21800515 	stw	r6,20(r4)
 20019b8:	21800415 	stw	r6,16(r4)
 20019bc:	10c00054 	ori	r3,r2,1
 20019c0:	31c00315 	stw	r7,12(r6)
 20019c4:	31c00215 	stw	r7,8(r6)
 20019c8:	30c00115 	stw	r3,4(r6)
 20019cc:	308d883a 	add	r6,r6,r2
 20019d0:	30800015 	stw	r2,0(r6)
 20019d4:	003f9506 	br	200182c <__alt_mem_shared_ocm+0xfe00082c>
 20019d8:	00c01504 	movi	r3,84
 20019dc:	19400536 	bltu	r3,r5,20019f4 <_free_r+0x2b8>
 20019e0:	100ad33a 	srli	r5,r2,12
 20019e4:	28c01bc4 	addi	r3,r5,111
 20019e8:	18c7883a 	add	r3,r3,r3
 20019ec:	29401b84 	addi	r5,r5,110
 20019f0:	003f9c06 	br	2001864 <__alt_mem_shared_ocm+0xfe000864>
 20019f4:	00c05504 	movi	r3,340
 20019f8:	19400536 	bltu	r3,r5,2001a10 <_free_r+0x2d4>
 20019fc:	100ad3fa 	srli	r5,r2,15
 2001a00:	28c01e04 	addi	r3,r5,120
 2001a04:	18c7883a 	add	r3,r3,r3
 2001a08:	29401dc4 	addi	r5,r5,119
 2001a0c:	003f9506 	br	2001864 <__alt_mem_shared_ocm+0xfe000864>
 2001a10:	00c15504 	movi	r3,1364
 2001a14:	19400536 	bltu	r3,r5,2001a2c <_free_r+0x2f0>
 2001a18:	100ad4ba 	srli	r5,r2,18
 2001a1c:	28c01f44 	addi	r3,r5,125
 2001a20:	18c7883a 	add	r3,r3,r3
 2001a24:	29401f04 	addi	r5,r5,124
 2001a28:	003f8e06 	br	2001864 <__alt_mem_shared_ocm+0xfe000864>
 2001a2c:	00c03f84 	movi	r3,254
 2001a30:	01401f84 	movi	r5,126
 2001a34:	003f8b06 	br	2001864 <__alt_mem_shared_ocm+0xfe000864>
 2001a38:	10c00054 	ori	r3,r2,1
 2001a3c:	30c00115 	stw	r3,4(r6)
 2001a40:	308d883a 	add	r6,r6,r2
 2001a44:	30800015 	stw	r2,0(r6)
 2001a48:	003f7806 	br	200182c <__alt_mem_shared_ocm+0xfe00082c>

02001a4c <_fseek_r>:
 2001a4c:	2001a6c1 	jmpi	2001a6c <_fseeko_r>

02001a50 <fseek>:
 2001a50:	008080b4 	movhi	r2,514
 2001a54:	10b12104 	addi	r2,r2,-15228
 2001a58:	300f883a 	mov	r7,r6
 2001a5c:	280d883a 	mov	r6,r5
 2001a60:	200b883a 	mov	r5,r4
 2001a64:	11000017 	ldw	r4,0(r2)
 2001a68:	2001a6c1 	jmpi	2001a6c <_fseeko_r>

02001a6c <_fseeko_r>:
 2001a6c:	deffe804 	addi	sp,sp,-96
 2001a70:	dd401415 	stw	r21,80(sp)
 2001a74:	dc801115 	stw	r18,68(sp)
 2001a78:	dc401015 	stw	r17,64(sp)
 2001a7c:	dc000f15 	stw	r16,60(sp)
 2001a80:	dfc01715 	stw	ra,92(sp)
 2001a84:	ddc01615 	stw	r23,88(sp)
 2001a88:	dd801515 	stw	r22,84(sp)
 2001a8c:	dd001315 	stw	r20,76(sp)
 2001a90:	dcc01215 	stw	r19,72(sp)
 2001a94:	2023883a 	mov	r17,r4
 2001a98:	2821883a 	mov	r16,r5
 2001a9c:	302b883a 	mov	r21,r6
 2001aa0:	3825883a 	mov	r18,r7
 2001aa4:	20000226 	beq	r4,zero,2001ab0 <_fseeko_r+0x44>
 2001aa8:	20800e17 	ldw	r2,56(r4)
 2001aac:	10005a26 	beq	r2,zero,2001c18 <_fseeko_r+0x1ac>
 2001ab0:	8080030b 	ldhu	r2,12(r16)
 2001ab4:	00c04204 	movi	r3,264
 2001ab8:	1080420c 	andi	r2,r2,264
 2001abc:	10c05b26 	beq	r2,r3,2001c2c <_fseeko_r+0x1c0>
 2001ac0:	85000a17 	ldw	r20,40(r16)
 2001ac4:	a000f626 	beq	r20,zero,2001ea0 <_fseeko_r+0x434>
 2001ac8:	00800044 	movi	r2,1
 2001acc:	90803e26 	beq	r18,r2,2001bc8 <_fseeko_r+0x15c>
 2001ad0:	00800084 	movi	r2,2
 2001ad4:	90801026 	beq	r18,r2,2001b18 <_fseeko_r+0xac>
 2001ad8:	90000f26 	beq	r18,zero,2001b18 <_fseeko_r+0xac>
 2001adc:	00800584 	movi	r2,22
 2001ae0:	88800015 	stw	r2,0(r17)
 2001ae4:	04ffffc4 	movi	r19,-1
 2001ae8:	9805883a 	mov	r2,r19
 2001aec:	dfc01717 	ldw	ra,92(sp)
 2001af0:	ddc01617 	ldw	r23,88(sp)
 2001af4:	dd801517 	ldw	r22,84(sp)
 2001af8:	dd401417 	ldw	r21,80(sp)
 2001afc:	dd001317 	ldw	r20,76(sp)
 2001b00:	dcc01217 	ldw	r19,72(sp)
 2001b04:	dc801117 	ldw	r18,68(sp)
 2001b08:	dc401017 	ldw	r17,64(sp)
 2001b0c:	dc000f17 	ldw	r16,60(sp)
 2001b10:	dec01804 	addi	sp,sp,96
 2001b14:	f800283a 	ret
 2001b18:	80800417 	ldw	r2,16(r16)
 2001b1c:	002f883a 	mov	r23,zero
 2001b20:	0027883a 	mov	r19,zero
 2001b24:	1000cb26 	beq	r2,zero,2001e54 <_fseeko_r+0x3e8>
 2001b28:	8080030b 	ldhu	r2,12(r16)
 2001b2c:	10c2068c 	andi	r3,r2,2074
 2001b30:	1800071e 	bne	r3,zero,2001b50 <_fseeko_r+0xe4>
 2001b34:	10c1000c 	andi	r3,r2,1024
 2001b38:	1800451e 	bne	r3,zero,2001c50 <_fseeko_r+0x1e4>
 2001b3c:	00c08034 	movhi	r3,512
 2001b40:	18cd3304 	addi	r3,r3,13516
 2001b44:	a0c0b726 	beq	r20,r3,2001e24 <_fseeko_r+0x3b8>
 2001b48:	10820014 	ori	r2,r2,2048
 2001b4c:	8080030d 	sth	r2,12(r16)
 2001b50:	800b883a 	mov	r5,r16
 2001b54:	8809883a 	mov	r4,r17
 2001b58:	2000e800 	call	2000e80 <_fflush_r>
 2001b5c:	1027883a 	mov	r19,r2
 2001b60:	103fe01e 	bne	r2,zero,2001ae4 <__alt_mem_shared_ocm+0xfe000ae4>
 2001b64:	81400717 	ldw	r5,28(r16)
 2001b68:	900f883a 	mov	r7,r18
 2001b6c:	a80d883a 	mov	r6,r21
 2001b70:	8809883a 	mov	r4,r17
 2001b74:	a03ee83a 	callr	r20
 2001b78:	00ffffc4 	movi	r3,-1
 2001b7c:	10ffd926 	beq	r2,r3,2001ae4 <__alt_mem_shared_ocm+0xfe000ae4>
 2001b80:	81400c17 	ldw	r5,48(r16)
 2001b84:	28000526 	beq	r5,zero,2001b9c <_fseeko_r+0x130>
 2001b88:	80801004 	addi	r2,r16,64
 2001b8c:	28800226 	beq	r5,r2,2001b98 <_fseeko_r+0x12c>
 2001b90:	8809883a 	mov	r4,r17
 2001b94:	200173c0 	call	200173c <_free_r>
 2001b98:	80000c15 	stw	zero,48(r16)
 2001b9c:	8080030b 	ldhu	r2,12(r16)
 2001ba0:	80c00417 	ldw	r3,16(r16)
 2001ba4:	80000115 	stw	zero,4(r16)
 2001ba8:	10bdf7cc 	andi	r2,r2,63455
 2001bac:	80c00015 	stw	r3,0(r16)
 2001bb0:	8080030d 	sth	r2,12(r16)
 2001bb4:	01800204 	movi	r6,8
 2001bb8:	000b883a 	mov	r5,zero
 2001bbc:	81001704 	addi	r4,r16,92
 2001bc0:	2002cc00 	call	2002cc0 <memset>
 2001bc4:	003fc806 	br	2001ae8 <__alt_mem_shared_ocm+0xfe000ae8>
 2001bc8:	800b883a 	mov	r5,r16
 2001bcc:	8809883a 	mov	r4,r17
 2001bd0:	2000e800 	call	2000e80 <_fflush_r>
 2001bd4:	8080030b 	ldhu	r2,12(r16)
 2001bd8:	10c4000c 	andi	r3,r2,4096
 2001bdc:	18008726 	beq	r3,zero,2001dfc <_fseeko_r+0x390>
 2001be0:	84c01417 	ldw	r19,80(r16)
 2001be4:	10c0010c 	andi	r3,r2,4
 2001be8:	1800431e 	bne	r3,zero,2001cf8 <_fseeko_r+0x28c>
 2001bec:	1080020c 	andi	r2,r2,8
 2001bf0:	10008026 	beq	r2,zero,2001df4 <_fseeko_r+0x388>
 2001bf4:	80c00017 	ldw	r3,0(r16)
 2001bf8:	80800417 	ldw	r2,16(r16)
 2001bfc:	18000226 	beq	r3,zero,2001c08 <_fseeko_r+0x19c>
 2001c00:	1887c83a 	sub	r3,r3,r2
 2001c04:	98e7883a 	add	r19,r19,r3
 2001c08:	aceb883a 	add	r21,r21,r19
 2001c0c:	05c00044 	movi	r23,1
 2001c10:	0025883a 	mov	r18,zero
 2001c14:	003fc306 	br	2001b24 <__alt_mem_shared_ocm+0xfe000b24>
 2001c18:	200125c0 	call	200125c <__sinit>
 2001c1c:	8080030b 	ldhu	r2,12(r16)
 2001c20:	00c04204 	movi	r3,264
 2001c24:	1080420c 	andi	r2,r2,264
 2001c28:	10ffa51e 	bne	r2,r3,2001ac0 <__alt_mem_shared_ocm+0xfe000ac0>
 2001c2c:	800b883a 	mov	r5,r16
 2001c30:	8809883a 	mov	r4,r17
 2001c34:	2000e800 	call	2000e80 <_fflush_r>
 2001c38:	003fa106 	br	2001ac0 <__alt_mem_shared_ocm+0xfe000ac0>
 2001c3c:	8080030b 	ldhu	r2,12(r16)
 2001c40:	00c10004 	movi	r3,1024
 2001c44:	80c01315 	stw	r3,76(r16)
 2001c48:	10c4b03a 	or	r2,r2,r3
 2001c4c:	8080030d 	sth	r2,12(r16)
 2001c50:	9000311e 	bne	r18,zero,2001d18 <_fseeko_r+0x2ac>
 2001c54:	a82d883a 	mov	r22,r21
 2001c58:	b800371e 	bne	r23,zero,2001d38 <_fseeko_r+0x2cc>
 2001c5c:	8080030b 	ldhu	r2,12(r16)
 2001c60:	1084000c 	andi	r2,r2,4096
 2001c64:	10007f26 	beq	r2,zero,2001e64 <_fseeko_r+0x3f8>
 2001c68:	80801417 	ldw	r2,80(r16)
 2001c6c:	81800117 	ldw	r6,4(r16)
 2001c70:	81400c17 	ldw	r5,48(r16)
 2001c74:	11a7c83a 	sub	r19,r2,r6
 2001c78:	28008226 	beq	r5,zero,2001e84 <_fseeko_r+0x418>
 2001c7c:	81c00f17 	ldw	r7,60(r16)
 2001c80:	99e7c83a 	sub	r19,r19,r7
 2001c84:	81000e17 	ldw	r4,56(r16)
 2001c88:	80800417 	ldw	r2,16(r16)
 2001c8c:	99a7883a 	add	r19,r19,r6
 2001c90:	2087c83a 	sub	r3,r4,r2
 2001c94:	98e7c83a 	sub	r19,r19,r3
 2001c98:	38c7883a 	add	r3,r7,r3
 2001c9c:	b4c02b16 	blt	r22,r19,2001d4c <_fseeko_r+0x2e0>
 2001ca0:	98c9883a 	add	r4,r19,r3
 2001ca4:	b100292e 	bgeu	r22,r4,2001d4c <_fseeko_r+0x2e0>
 2001ca8:	b4e7c83a 	sub	r19,r22,r19
 2001cac:	14c5883a 	add	r2,r2,r19
 2001cb0:	1ce7c83a 	sub	r19,r3,r19
 2001cb4:	80800015 	stw	r2,0(r16)
 2001cb8:	84c00115 	stw	r19,4(r16)
 2001cbc:	28000526 	beq	r5,zero,2001cd4 <_fseeko_r+0x268>
 2001cc0:	80801004 	addi	r2,r16,64
 2001cc4:	28800226 	beq	r5,r2,2001cd0 <_fseeko_r+0x264>
 2001cc8:	8809883a 	mov	r4,r17
 2001ccc:	200173c0 	call	200173c <_free_r>
 2001cd0:	80000c15 	stw	zero,48(r16)
 2001cd4:	8080030b 	ldhu	r2,12(r16)
 2001cd8:	01800204 	movi	r6,8
 2001cdc:	000b883a 	mov	r5,zero
 2001ce0:	10bff7cc 	andi	r2,r2,65503
 2001ce4:	8080030d 	sth	r2,12(r16)
 2001ce8:	81001704 	addi	r4,r16,92
 2001cec:	2002cc00 	call	2002cc0 <memset>
 2001cf0:	0027883a 	mov	r19,zero
 2001cf4:	003f7c06 	br	2001ae8 <__alt_mem_shared_ocm+0xfe000ae8>
 2001cf8:	80c00117 	ldw	r3,4(r16)
 2001cfc:	80800c17 	ldw	r2,48(r16)
 2001d00:	98e7c83a 	sub	r19,r19,r3
 2001d04:	10003b26 	beq	r2,zero,2001df4 <_fseeko_r+0x388>
 2001d08:	80c00f17 	ldw	r3,60(r16)
 2001d0c:	80800417 	ldw	r2,16(r16)
 2001d10:	98e7c83a 	sub	r19,r19,r3
 2001d14:	003fbc06 	br	2001c08 <__alt_mem_shared_ocm+0xfe000c08>
 2001d18:	8140038f 	ldh	r5,14(r16)
 2001d1c:	d80d883a 	mov	r6,sp
 2001d20:	8809883a 	mov	r4,r17
 2001d24:	2001ecc0 	call	2001ecc <_fstat_r>
 2001d28:	103f891e 	bne	r2,zero,2001b50 <__alt_mem_shared_ocm+0xfe000b50>
 2001d2c:	dd800417 	ldw	r22,16(sp)
 2001d30:	adad883a 	add	r22,r21,r22
 2001d34:	b83fc926 	beq	r23,zero,2001c5c <__alt_mem_shared_ocm+0xfe000c5c>
 2001d38:	81400c17 	ldw	r5,48(r16)
 2001d3c:	81800117 	ldw	r6,4(r16)
 2001d40:	28005026 	beq	r5,zero,2001e84 <_fseeko_r+0x418>
 2001d44:	81c00f17 	ldw	r7,60(r16)
 2001d48:	003fce06 	br	2001c84 <__alt_mem_shared_ocm+0xfe000c84>
 2001d4c:	84c01317 	ldw	r19,76(r16)
 2001d50:	81400717 	ldw	r5,28(r16)
 2001d54:	000f883a 	mov	r7,zero
 2001d58:	04e7c83a 	sub	r19,zero,r19
 2001d5c:	9da6703a 	and	r19,r19,r22
 2001d60:	980d883a 	mov	r6,r19
 2001d64:	8809883a 	mov	r4,r17
 2001d68:	a03ee83a 	callr	r20
 2001d6c:	00ffffc4 	movi	r3,-1
 2001d70:	10ff7726 	beq	r2,r3,2001b50 <__alt_mem_shared_ocm+0xfe000b50>
 2001d74:	80800417 	ldw	r2,16(r16)
 2001d78:	81400c17 	ldw	r5,48(r16)
 2001d7c:	80000115 	stw	zero,4(r16)
 2001d80:	80800015 	stw	r2,0(r16)
 2001d84:	28000526 	beq	r5,zero,2001d9c <_fseeko_r+0x330>
 2001d88:	80801004 	addi	r2,r16,64
 2001d8c:	28800226 	beq	r5,r2,2001d98 <_fseeko_r+0x32c>
 2001d90:	8809883a 	mov	r4,r17
 2001d94:	200173c0 	call	200173c <_free_r>
 2001d98:	80000c15 	stw	zero,48(r16)
 2001d9c:	8080030b 	ldhu	r2,12(r16)
 2001da0:	b4e7c83a 	sub	r19,r22,r19
 2001da4:	10bff7cc 	andi	r2,r2,65503
 2001da8:	8080030d 	sth	r2,12(r16)
 2001dac:	98000b26 	beq	r19,zero,2001ddc <_fseeko_r+0x370>
 2001db0:	800b883a 	mov	r5,r16
 2001db4:	8809883a 	mov	r4,r17
 2001db8:	2002fa40 	call	2002fa4 <__srefill_r>
 2001dbc:	103f641e 	bne	r2,zero,2001b50 <__alt_mem_shared_ocm+0xfe000b50>
 2001dc0:	80800117 	ldw	r2,4(r16)
 2001dc4:	14ff6236 	bltu	r2,r19,2001b50 <__alt_mem_shared_ocm+0xfe000b50>
 2001dc8:	80c00017 	ldw	r3,0(r16)
 2001dcc:	14c5c83a 	sub	r2,r2,r19
 2001dd0:	80800115 	stw	r2,4(r16)
 2001dd4:	1ce7883a 	add	r19,r3,r19
 2001dd8:	84c00015 	stw	r19,0(r16)
 2001ddc:	01800204 	movi	r6,8
 2001de0:	000b883a 	mov	r5,zero
 2001de4:	81001704 	addi	r4,r16,92
 2001de8:	2002cc00 	call	2002cc0 <memset>
 2001dec:	0027883a 	mov	r19,zero
 2001df0:	003f3d06 	br	2001ae8 <__alt_mem_shared_ocm+0xfe000ae8>
 2001df4:	80800417 	ldw	r2,16(r16)
 2001df8:	003f8306 	br	2001c08 <__alt_mem_shared_ocm+0xfe000c08>
 2001dfc:	81400717 	ldw	r5,28(r16)
 2001e00:	900f883a 	mov	r7,r18
 2001e04:	000d883a 	mov	r6,zero
 2001e08:	8809883a 	mov	r4,r17
 2001e0c:	a03ee83a 	callr	r20
 2001e10:	1027883a 	mov	r19,r2
 2001e14:	00bfffc4 	movi	r2,-1
 2001e18:	98bf3226 	beq	r19,r2,2001ae4 <__alt_mem_shared_ocm+0xfe000ae4>
 2001e1c:	8080030b 	ldhu	r2,12(r16)
 2001e20:	003f7006 	br	2001be4 <__alt_mem_shared_ocm+0xfe000be4>
 2001e24:	8140038f 	ldh	r5,14(r16)
 2001e28:	283f4716 	blt	r5,zero,2001b48 <__alt_mem_shared_ocm+0xfe000b48>
 2001e2c:	d80d883a 	mov	r6,sp
 2001e30:	8809883a 	mov	r4,r17
 2001e34:	2001ecc0 	call	2001ecc <_fstat_r>
 2001e38:	1000041e 	bne	r2,zero,2001e4c <_fseeko_r+0x3e0>
 2001e3c:	d8800117 	ldw	r2,4(sp)
 2001e40:	00e00014 	movui	r3,32768
 2001e44:	10bc000c 	andi	r2,r2,61440
 2001e48:	10ff7c26 	beq	r2,r3,2001c3c <__alt_mem_shared_ocm+0xfe000c3c>
 2001e4c:	8080030b 	ldhu	r2,12(r16)
 2001e50:	003f3d06 	br	2001b48 <__alt_mem_shared_ocm+0xfe000b48>
 2001e54:	800b883a 	mov	r5,r16
 2001e58:	8809883a 	mov	r4,r17
 2001e5c:	20021b00 	call	20021b0 <__smakebuf_r>
 2001e60:	003f3106 	br	2001b28 <__alt_mem_shared_ocm+0xfe000b28>
 2001e64:	81400717 	ldw	r5,28(r16)
 2001e68:	01c00044 	movi	r7,1
 2001e6c:	000d883a 	mov	r6,zero
 2001e70:	8809883a 	mov	r4,r17
 2001e74:	a03ee83a 	callr	r20
 2001e78:	00ffffc4 	movi	r3,-1
 2001e7c:	10ff7b1e 	bne	r2,r3,2001c6c <__alt_mem_shared_ocm+0xfe000c6c>
 2001e80:	003f3306 	br	2001b50 <__alt_mem_shared_ocm+0xfe000b50>
 2001e84:	80c00017 	ldw	r3,0(r16)
 2001e88:	80800417 	ldw	r2,16(r16)
 2001e8c:	000b883a 	mov	r5,zero
 2001e90:	1887c83a 	sub	r3,r3,r2
 2001e94:	98e7c83a 	sub	r19,r19,r3
 2001e98:	30c7883a 	add	r3,r6,r3
 2001e9c:	003f7f06 	br	2001c9c <__alt_mem_shared_ocm+0xfe000c9c>
 2001ea0:	00800744 	movi	r2,29
 2001ea4:	88800015 	stw	r2,0(r17)
 2001ea8:	04ffffc4 	movi	r19,-1
 2001eac:	003f0e06 	br	2001ae8 <__alt_mem_shared_ocm+0xfe000ae8>

02001eb0 <fseeko>:
 2001eb0:	008080b4 	movhi	r2,514
 2001eb4:	10b12104 	addi	r2,r2,-15228
 2001eb8:	300f883a 	mov	r7,r6
 2001ebc:	280d883a 	mov	r6,r5
 2001ec0:	200b883a 	mov	r5,r4
 2001ec4:	11000017 	ldw	r4,0(r2)
 2001ec8:	2001a6c1 	jmpi	2001a6c <_fseeko_r>

02001ecc <_fstat_r>:
 2001ecc:	defffd04 	addi	sp,sp,-12
 2001ed0:	2805883a 	mov	r2,r5
 2001ed4:	dc000015 	stw	r16,0(sp)
 2001ed8:	040080b4 	movhi	r16,514
 2001edc:	dc400115 	stw	r17,4(sp)
 2001ee0:	84382f04 	addi	r16,r16,-8004
 2001ee4:	2023883a 	mov	r17,r4
 2001ee8:	300b883a 	mov	r5,r6
 2001eec:	1009883a 	mov	r4,r2
 2001ef0:	dfc00215 	stw	ra,8(sp)
 2001ef4:	80000015 	stw	zero,0(r16)
 2001ef8:	2016c0c0 	call	2016c0c <fstat>
 2001efc:	00ffffc4 	movi	r3,-1
 2001f00:	10c00526 	beq	r2,r3,2001f18 <_fstat_r+0x4c>
 2001f04:	dfc00217 	ldw	ra,8(sp)
 2001f08:	dc400117 	ldw	r17,4(sp)
 2001f0c:	dc000017 	ldw	r16,0(sp)
 2001f10:	dec00304 	addi	sp,sp,12
 2001f14:	f800283a 	ret
 2001f18:	80c00017 	ldw	r3,0(r16)
 2001f1c:	183ff926 	beq	r3,zero,2001f04 <__alt_mem_shared_ocm+0xfe000f04>
 2001f20:	88c00015 	stw	r3,0(r17)
 2001f24:	003ff706 	br	2001f04 <__alt_mem_shared_ocm+0xfe000f04>

02001f28 <_fwalk>:
 2001f28:	defff704 	addi	sp,sp,-36
 2001f2c:	dd000415 	stw	r20,16(sp)
 2001f30:	dfc00815 	stw	ra,32(sp)
 2001f34:	ddc00715 	stw	r23,28(sp)
 2001f38:	dd800615 	stw	r22,24(sp)
 2001f3c:	dd400515 	stw	r21,20(sp)
 2001f40:	dcc00315 	stw	r19,12(sp)
 2001f44:	dc800215 	stw	r18,8(sp)
 2001f48:	dc400115 	stw	r17,4(sp)
 2001f4c:	dc000015 	stw	r16,0(sp)
 2001f50:	2500b804 	addi	r20,r4,736
 2001f54:	a0002326 	beq	r20,zero,2001fe4 <_fwalk+0xbc>
 2001f58:	282b883a 	mov	r21,r5
 2001f5c:	002f883a 	mov	r23,zero
 2001f60:	05800044 	movi	r22,1
 2001f64:	04ffffc4 	movi	r19,-1
 2001f68:	a4400117 	ldw	r17,4(r20)
 2001f6c:	a4800217 	ldw	r18,8(r20)
 2001f70:	8c7fffc4 	addi	r17,r17,-1
 2001f74:	88000d16 	blt	r17,zero,2001fac <_fwalk+0x84>
 2001f78:	94000304 	addi	r16,r18,12
 2001f7c:	94800384 	addi	r18,r18,14
 2001f80:	8080000b 	ldhu	r2,0(r16)
 2001f84:	8c7fffc4 	addi	r17,r17,-1
 2001f88:	813ffd04 	addi	r4,r16,-12
 2001f8c:	b080042e 	bgeu	r22,r2,2001fa0 <_fwalk+0x78>
 2001f90:	9080000f 	ldh	r2,0(r18)
 2001f94:	14c00226 	beq	r2,r19,2001fa0 <_fwalk+0x78>
 2001f98:	a83ee83a 	callr	r21
 2001f9c:	b8aeb03a 	or	r23,r23,r2
 2001fa0:	84001a04 	addi	r16,r16,104
 2001fa4:	94801a04 	addi	r18,r18,104
 2001fa8:	8cfff51e 	bne	r17,r19,2001f80 <__alt_mem_shared_ocm+0xfe000f80>
 2001fac:	a5000017 	ldw	r20,0(r20)
 2001fb0:	a03fed1e 	bne	r20,zero,2001f68 <__alt_mem_shared_ocm+0xfe000f68>
 2001fb4:	b805883a 	mov	r2,r23
 2001fb8:	dfc00817 	ldw	ra,32(sp)
 2001fbc:	ddc00717 	ldw	r23,28(sp)
 2001fc0:	dd800617 	ldw	r22,24(sp)
 2001fc4:	dd400517 	ldw	r21,20(sp)
 2001fc8:	dd000417 	ldw	r20,16(sp)
 2001fcc:	dcc00317 	ldw	r19,12(sp)
 2001fd0:	dc800217 	ldw	r18,8(sp)
 2001fd4:	dc400117 	ldw	r17,4(sp)
 2001fd8:	dc000017 	ldw	r16,0(sp)
 2001fdc:	dec00904 	addi	sp,sp,36
 2001fe0:	f800283a 	ret
 2001fe4:	002f883a 	mov	r23,zero
 2001fe8:	003ff206 	br	2001fb4 <__alt_mem_shared_ocm+0xfe000fb4>

02001fec <_fwalk_reent>:
 2001fec:	defff704 	addi	sp,sp,-36
 2001ff0:	dd000415 	stw	r20,16(sp)
 2001ff4:	dfc00815 	stw	ra,32(sp)
 2001ff8:	ddc00715 	stw	r23,28(sp)
 2001ffc:	dd800615 	stw	r22,24(sp)
 2002000:	dd400515 	stw	r21,20(sp)
 2002004:	dcc00315 	stw	r19,12(sp)
 2002008:	dc800215 	stw	r18,8(sp)
 200200c:	dc400115 	stw	r17,4(sp)
 2002010:	dc000015 	stw	r16,0(sp)
 2002014:	2500b804 	addi	r20,r4,736
 2002018:	a0002326 	beq	r20,zero,20020a8 <_fwalk_reent+0xbc>
 200201c:	282b883a 	mov	r21,r5
 2002020:	2027883a 	mov	r19,r4
 2002024:	002f883a 	mov	r23,zero
 2002028:	05800044 	movi	r22,1
 200202c:	04bfffc4 	movi	r18,-1
 2002030:	a4400117 	ldw	r17,4(r20)
 2002034:	a4000217 	ldw	r16,8(r20)
 2002038:	8c7fffc4 	addi	r17,r17,-1
 200203c:	88000c16 	blt	r17,zero,2002070 <_fwalk_reent+0x84>
 2002040:	84000304 	addi	r16,r16,12
 2002044:	8080000b 	ldhu	r2,0(r16)
 2002048:	8c7fffc4 	addi	r17,r17,-1
 200204c:	817ffd04 	addi	r5,r16,-12
 2002050:	b080052e 	bgeu	r22,r2,2002068 <_fwalk_reent+0x7c>
 2002054:	8080008f 	ldh	r2,2(r16)
 2002058:	9809883a 	mov	r4,r19
 200205c:	14800226 	beq	r2,r18,2002068 <_fwalk_reent+0x7c>
 2002060:	a83ee83a 	callr	r21
 2002064:	b8aeb03a 	or	r23,r23,r2
 2002068:	84001a04 	addi	r16,r16,104
 200206c:	8cbff51e 	bne	r17,r18,2002044 <__alt_mem_shared_ocm+0xfe001044>
 2002070:	a5000017 	ldw	r20,0(r20)
 2002074:	a03fee1e 	bne	r20,zero,2002030 <__alt_mem_shared_ocm+0xfe001030>
 2002078:	b805883a 	mov	r2,r23
 200207c:	dfc00817 	ldw	ra,32(sp)
 2002080:	ddc00717 	ldw	r23,28(sp)
 2002084:	dd800617 	ldw	r22,24(sp)
 2002088:	dd400517 	ldw	r21,20(sp)
 200208c:	dd000417 	ldw	r20,16(sp)
 2002090:	dcc00317 	ldw	r19,12(sp)
 2002094:	dc800217 	ldw	r18,8(sp)
 2002098:	dc400117 	ldw	r17,4(sp)
 200209c:	dc000017 	ldw	r16,0(sp)
 20020a0:	dec00904 	addi	sp,sp,36
 20020a4:	f800283a 	ret
 20020a8:	002f883a 	mov	r23,zero
 20020ac:	003ff206 	br	2002078 <__alt_mem_shared_ocm+0xfe001078>

020020b0 <_fwrite_r>:
 20020b0:	defff504 	addi	sp,sp,-44
 20020b4:	dc800815 	stw	r18,32(sp)
 20020b8:	39a5383a 	mul	r18,r7,r6
 20020bc:	d8800304 	addi	r2,sp,12
 20020c0:	d8800015 	stw	r2,0(sp)
 20020c4:	00800044 	movi	r2,1
 20020c8:	dcc00915 	stw	r19,36(sp)
 20020cc:	dc400715 	stw	r17,28(sp)
 20020d0:	dc000615 	stw	r16,24(sp)
 20020d4:	d9400315 	stw	r5,12(sp)
 20020d8:	dfc00a15 	stw	ra,40(sp)
 20020dc:	dc800415 	stw	r18,16(sp)
 20020e0:	dc800215 	stw	r18,8(sp)
 20020e4:	d8800115 	stw	r2,4(sp)
 20020e8:	3027883a 	mov	r19,r6
 20020ec:	3821883a 	mov	r16,r7
 20020f0:	2023883a 	mov	r17,r4
 20020f4:	d9400b17 	ldw	r5,44(sp)
 20020f8:	20000226 	beq	r4,zero,2002104 <_fwrite_r+0x54>
 20020fc:	20800e17 	ldw	r2,56(r4)
 2002100:	10001a26 	beq	r2,zero,200216c <_fwrite_r+0xbc>
 2002104:	2880030b 	ldhu	r2,12(r5)
 2002108:	10c8000c 	andi	r3,r2,8192
 200210c:	1800061e 	bne	r3,zero,2002128 <_fwrite_r+0x78>
 2002110:	29001917 	ldw	r4,100(r5)
 2002114:	00f7ffc4 	movi	r3,-8193
 2002118:	10880014 	ori	r2,r2,8192
 200211c:	20c6703a 	and	r3,r4,r3
 2002120:	2880030d 	sth	r2,12(r5)
 2002124:	28c01915 	stw	r3,100(r5)
 2002128:	d80d883a 	mov	r6,sp
 200212c:	8809883a 	mov	r4,r17
 2002130:	200ae380 	call	200ae38 <__sfvwrite_r>
 2002134:	10000b26 	beq	r2,zero,2002164 <_fwrite_r+0xb4>
 2002138:	d9000217 	ldw	r4,8(sp)
 200213c:	980b883a 	mov	r5,r19
 2002140:	9109c83a 	sub	r4,r18,r4
 2002144:	2013fd00 	call	2013fd0 <__udivsi3>
 2002148:	dfc00a17 	ldw	ra,40(sp)
 200214c:	dcc00917 	ldw	r19,36(sp)
 2002150:	dc800817 	ldw	r18,32(sp)
 2002154:	dc400717 	ldw	r17,28(sp)
 2002158:	dc000617 	ldw	r16,24(sp)
 200215c:	dec00b04 	addi	sp,sp,44
 2002160:	f800283a 	ret
 2002164:	8005883a 	mov	r2,r16
 2002168:	003ff706 	br	2002148 <__alt_mem_shared_ocm+0xfe001148>
 200216c:	d9400515 	stw	r5,20(sp)
 2002170:	200125c0 	call	200125c <__sinit>
 2002174:	d9400517 	ldw	r5,20(sp)
 2002178:	003fe206 	br	2002104 <__alt_mem_shared_ocm+0xfe001104>

0200217c <fwrite>:
 200217c:	defffe04 	addi	sp,sp,-8
 2002180:	008080b4 	movhi	r2,514
 2002184:	d9c00015 	stw	r7,0(sp)
 2002188:	10b12104 	addi	r2,r2,-15228
 200218c:	300f883a 	mov	r7,r6
 2002190:	280d883a 	mov	r6,r5
 2002194:	200b883a 	mov	r5,r4
 2002198:	11000017 	ldw	r4,0(r2)
 200219c:	dfc00115 	stw	ra,4(sp)
 20021a0:	20020b00 	call	20020b0 <_fwrite_r>
 20021a4:	dfc00117 	ldw	ra,4(sp)
 20021a8:	dec00204 	addi	sp,sp,8
 20021ac:	f800283a 	ret

020021b0 <__smakebuf_r>:
 20021b0:	2880030b 	ldhu	r2,12(r5)
 20021b4:	10c0008c 	andi	r3,r2,2
 20021b8:	1800411e 	bne	r3,zero,20022c0 <__smakebuf_r+0x110>
 20021bc:	deffec04 	addi	sp,sp,-80
 20021c0:	dc000f15 	stw	r16,60(sp)
 20021c4:	2821883a 	mov	r16,r5
 20021c8:	2940038f 	ldh	r5,14(r5)
 20021cc:	dc401015 	stw	r17,64(sp)
 20021d0:	dfc01315 	stw	ra,76(sp)
 20021d4:	dcc01215 	stw	r19,72(sp)
 20021d8:	dc801115 	stw	r18,68(sp)
 20021dc:	2023883a 	mov	r17,r4
 20021e0:	28001c16 	blt	r5,zero,2002254 <__smakebuf_r+0xa4>
 20021e4:	d80d883a 	mov	r6,sp
 20021e8:	2001ecc0 	call	2001ecc <_fstat_r>
 20021ec:	10001816 	blt	r2,zero,2002250 <__smakebuf_r+0xa0>
 20021f0:	d8800117 	ldw	r2,4(sp)
 20021f4:	00e00014 	movui	r3,32768
 20021f8:	10bc000c 	andi	r2,r2,61440
 20021fc:	14c80020 	cmpeqi	r19,r2,8192
 2002200:	10c03726 	beq	r2,r3,20022e0 <__smakebuf_r+0x130>
 2002204:	80c0030b 	ldhu	r3,12(r16)
 2002208:	18c20014 	ori	r3,r3,2048
 200220c:	80c0030d 	sth	r3,12(r16)
 2002210:	00c80004 	movi	r3,8192
 2002214:	10c0521e 	bne	r2,r3,2002360 <__smakebuf_r+0x1b0>
 2002218:	8140038f 	ldh	r5,14(r16)
 200221c:	8809883a 	mov	r4,r17
 2002220:	200b2f40 	call	200b2f4 <_isatty_r>
 2002224:	10004c26 	beq	r2,zero,2002358 <__smakebuf_r+0x1a8>
 2002228:	8080030b 	ldhu	r2,12(r16)
 200222c:	80c010c4 	addi	r3,r16,67
 2002230:	80c00015 	stw	r3,0(r16)
 2002234:	10800054 	ori	r2,r2,1
 2002238:	8080030d 	sth	r2,12(r16)
 200223c:	00800044 	movi	r2,1
 2002240:	80c00415 	stw	r3,16(r16)
 2002244:	80800515 	stw	r2,20(r16)
 2002248:	04810004 	movi	r18,1024
 200224c:	00000706 	br	200226c <__smakebuf_r+0xbc>
 2002250:	8080030b 	ldhu	r2,12(r16)
 2002254:	10c0200c 	andi	r3,r2,128
 2002258:	18001f1e 	bne	r3,zero,20022d8 <__smakebuf_r+0x128>
 200225c:	04810004 	movi	r18,1024
 2002260:	10820014 	ori	r2,r2,2048
 2002264:	8080030d 	sth	r2,12(r16)
 2002268:	0027883a 	mov	r19,zero
 200226c:	900b883a 	mov	r5,r18
 2002270:	8809883a 	mov	r4,r17
 2002274:	200236c0 	call	200236c <_malloc_r>
 2002278:	10002c26 	beq	r2,zero,200232c <__smakebuf_r+0x17c>
 200227c:	80c0030b 	ldhu	r3,12(r16)
 2002280:	01008034 	movhi	r4,512
 2002284:	2103c504 	addi	r4,r4,3860
 2002288:	89000f15 	stw	r4,60(r17)
 200228c:	18c02014 	ori	r3,r3,128
 2002290:	80c0030d 	sth	r3,12(r16)
 2002294:	80800015 	stw	r2,0(r16)
 2002298:	80800415 	stw	r2,16(r16)
 200229c:	84800515 	stw	r18,20(r16)
 20022a0:	98001a1e 	bne	r19,zero,200230c <__smakebuf_r+0x15c>
 20022a4:	dfc01317 	ldw	ra,76(sp)
 20022a8:	dcc01217 	ldw	r19,72(sp)
 20022ac:	dc801117 	ldw	r18,68(sp)
 20022b0:	dc401017 	ldw	r17,64(sp)
 20022b4:	dc000f17 	ldw	r16,60(sp)
 20022b8:	dec01404 	addi	sp,sp,80
 20022bc:	f800283a 	ret
 20022c0:	288010c4 	addi	r2,r5,67
 20022c4:	28800015 	stw	r2,0(r5)
 20022c8:	28800415 	stw	r2,16(r5)
 20022cc:	00800044 	movi	r2,1
 20022d0:	28800515 	stw	r2,20(r5)
 20022d4:	f800283a 	ret
 20022d8:	04801004 	movi	r18,64
 20022dc:	003fe006 	br	2002260 <__alt_mem_shared_ocm+0xfe001260>
 20022e0:	81000a17 	ldw	r4,40(r16)
 20022e4:	00c08034 	movhi	r3,512
 20022e8:	18cd3304 	addi	r3,r3,13516
 20022ec:	20ffc51e 	bne	r4,r3,2002204 <__alt_mem_shared_ocm+0xfe001204>
 20022f0:	8080030b 	ldhu	r2,12(r16)
 20022f4:	04810004 	movi	r18,1024
 20022f8:	84801315 	stw	r18,76(r16)
 20022fc:	1484b03a 	or	r2,r2,r18
 2002300:	8080030d 	sth	r2,12(r16)
 2002304:	0027883a 	mov	r19,zero
 2002308:	003fd806 	br	200226c <__alt_mem_shared_ocm+0xfe00126c>
 200230c:	8140038f 	ldh	r5,14(r16)
 2002310:	8809883a 	mov	r4,r17
 2002314:	200b2f40 	call	200b2f4 <_isatty_r>
 2002318:	103fe226 	beq	r2,zero,20022a4 <__alt_mem_shared_ocm+0xfe0012a4>
 200231c:	8080030b 	ldhu	r2,12(r16)
 2002320:	10800054 	ori	r2,r2,1
 2002324:	8080030d 	sth	r2,12(r16)
 2002328:	003fde06 	br	20022a4 <__alt_mem_shared_ocm+0xfe0012a4>
 200232c:	8080030b 	ldhu	r2,12(r16)
 2002330:	10c0800c 	andi	r3,r2,512
 2002334:	183fdb1e 	bne	r3,zero,20022a4 <__alt_mem_shared_ocm+0xfe0012a4>
 2002338:	10800094 	ori	r2,r2,2
 200233c:	80c010c4 	addi	r3,r16,67
 2002340:	8080030d 	sth	r2,12(r16)
 2002344:	00800044 	movi	r2,1
 2002348:	80c00015 	stw	r3,0(r16)
 200234c:	80c00415 	stw	r3,16(r16)
 2002350:	80800515 	stw	r2,20(r16)
 2002354:	003fd306 	br	20022a4 <__alt_mem_shared_ocm+0xfe0012a4>
 2002358:	04810004 	movi	r18,1024
 200235c:	003fc306 	br	200226c <__alt_mem_shared_ocm+0xfe00126c>
 2002360:	0027883a 	mov	r19,zero
 2002364:	04810004 	movi	r18,1024
 2002368:	003fc006 	br	200226c <__alt_mem_shared_ocm+0xfe00126c>

0200236c <_malloc_r>:
 200236c:	defff504 	addi	sp,sp,-44
 2002370:	dc800315 	stw	r18,12(sp)
 2002374:	dfc00a15 	stw	ra,40(sp)
 2002378:	df000915 	stw	fp,36(sp)
 200237c:	ddc00815 	stw	r23,32(sp)
 2002380:	dd800715 	stw	r22,28(sp)
 2002384:	dd400615 	stw	r21,24(sp)
 2002388:	dd000515 	stw	r20,20(sp)
 200238c:	dcc00415 	stw	r19,16(sp)
 2002390:	dc400215 	stw	r17,8(sp)
 2002394:	dc000115 	stw	r16,4(sp)
 2002398:	288002c4 	addi	r2,r5,11
 200239c:	00c00584 	movi	r3,22
 20023a0:	2025883a 	mov	r18,r4
 20023a4:	18807f2e 	bgeu	r3,r2,20025a4 <_malloc_r+0x238>
 20023a8:	047ffe04 	movi	r17,-8
 20023ac:	1462703a 	and	r17,r2,r17
 20023b0:	8800a316 	blt	r17,zero,2002640 <_malloc_r+0x2d4>
 20023b4:	8940a236 	bltu	r17,r5,2002640 <_malloc_r+0x2d4>
 20023b8:	20170140 	call	2017014 <__malloc_lock>
 20023bc:	00807dc4 	movi	r2,503
 20023c0:	1441e92e 	bgeu	r2,r17,2002b68 <_malloc_r+0x7fc>
 20023c4:	8804d27a 	srli	r2,r17,9
 20023c8:	1000a126 	beq	r2,zero,2002650 <_malloc_r+0x2e4>
 20023cc:	00c00104 	movi	r3,4
 20023d0:	18811e36 	bltu	r3,r2,200284c <_malloc_r+0x4e0>
 20023d4:	8804d1ba 	srli	r2,r17,6
 20023d8:	12000e44 	addi	r8,r2,57
 20023dc:	11c00e04 	addi	r7,r2,56
 20023e0:	4209883a 	add	r4,r8,r8
 20023e4:	04c080b4 	movhi	r19,514
 20023e8:	2109883a 	add	r4,r4,r4
 20023ec:	9ceb6704 	addi	r19,r19,-21092
 20023f0:	2109883a 	add	r4,r4,r4
 20023f4:	9909883a 	add	r4,r19,r4
 20023f8:	24000117 	ldw	r16,4(r4)
 20023fc:	213ffe04 	addi	r4,r4,-8
 2002400:	24009726 	beq	r4,r16,2002660 <_malloc_r+0x2f4>
 2002404:	80800117 	ldw	r2,4(r16)
 2002408:	01bfff04 	movi	r6,-4
 200240c:	014003c4 	movi	r5,15
 2002410:	1184703a 	and	r2,r2,r6
 2002414:	1447c83a 	sub	r3,r2,r17
 2002418:	28c00716 	blt	r5,r3,2002438 <_malloc_r+0xcc>
 200241c:	1800920e 	bge	r3,zero,2002668 <_malloc_r+0x2fc>
 2002420:	84000317 	ldw	r16,12(r16)
 2002424:	24008e26 	beq	r4,r16,2002660 <_malloc_r+0x2f4>
 2002428:	80800117 	ldw	r2,4(r16)
 200242c:	1184703a 	and	r2,r2,r6
 2002430:	1447c83a 	sub	r3,r2,r17
 2002434:	28fff90e 	bge	r5,r3,200241c <__alt_mem_shared_ocm+0xfe00141c>
 2002438:	3809883a 	mov	r4,r7
 200243c:	018080b4 	movhi	r6,514
 2002440:	9c000417 	ldw	r16,16(r19)
 2002444:	31ab6704 	addi	r6,r6,-21092
 2002448:	32000204 	addi	r8,r6,8
 200244c:	82013426 	beq	r16,r8,2002920 <_malloc_r+0x5b4>
 2002450:	80c00117 	ldw	r3,4(r16)
 2002454:	00bfff04 	movi	r2,-4
 2002458:	188e703a 	and	r7,r3,r2
 200245c:	3c45c83a 	sub	r2,r7,r17
 2002460:	00c003c4 	movi	r3,15
 2002464:	18811f16 	blt	r3,r2,20028e4 <_malloc_r+0x578>
 2002468:	32000515 	stw	r8,20(r6)
 200246c:	32000415 	stw	r8,16(r6)
 2002470:	10007f0e 	bge	r2,zero,2002670 <_malloc_r+0x304>
 2002474:	00807fc4 	movi	r2,511
 2002478:	11c0fd36 	bltu	r2,r7,2002870 <_malloc_r+0x504>
 200247c:	3806d0fa 	srli	r3,r7,3
 2002480:	01c00044 	movi	r7,1
 2002484:	30800117 	ldw	r2,4(r6)
 2002488:	19400044 	addi	r5,r3,1
 200248c:	294b883a 	add	r5,r5,r5
 2002490:	1807d0ba 	srai	r3,r3,2
 2002494:	294b883a 	add	r5,r5,r5
 2002498:	294b883a 	add	r5,r5,r5
 200249c:	298b883a 	add	r5,r5,r6
 20024a0:	38c6983a 	sll	r3,r7,r3
 20024a4:	29c00017 	ldw	r7,0(r5)
 20024a8:	2a7ffe04 	addi	r9,r5,-8
 20024ac:	1886b03a 	or	r3,r3,r2
 20024b0:	82400315 	stw	r9,12(r16)
 20024b4:	81c00215 	stw	r7,8(r16)
 20024b8:	30c00115 	stw	r3,4(r6)
 20024bc:	2c000015 	stw	r16,0(r5)
 20024c0:	3c000315 	stw	r16,12(r7)
 20024c4:	2005d0ba 	srai	r2,r4,2
 20024c8:	01400044 	movi	r5,1
 20024cc:	288a983a 	sll	r5,r5,r2
 20024d0:	19406f36 	bltu	r3,r5,2002690 <_malloc_r+0x324>
 20024d4:	28c4703a 	and	r2,r5,r3
 20024d8:	10000a1e 	bne	r2,zero,2002504 <_malloc_r+0x198>
 20024dc:	00bfff04 	movi	r2,-4
 20024e0:	294b883a 	add	r5,r5,r5
 20024e4:	2088703a 	and	r4,r4,r2
 20024e8:	28c4703a 	and	r2,r5,r3
 20024ec:	21000104 	addi	r4,r4,4
 20024f0:	1000041e 	bne	r2,zero,2002504 <_malloc_r+0x198>
 20024f4:	294b883a 	add	r5,r5,r5
 20024f8:	28c4703a 	and	r2,r5,r3
 20024fc:	21000104 	addi	r4,r4,4
 2002500:	103ffc26 	beq	r2,zero,20024f4 <__alt_mem_shared_ocm+0xfe0014f4>
 2002504:	02bfff04 	movi	r10,-4
 2002508:	024003c4 	movi	r9,15
 200250c:	21800044 	addi	r6,r4,1
 2002510:	318d883a 	add	r6,r6,r6
 2002514:	318d883a 	add	r6,r6,r6
 2002518:	318d883a 	add	r6,r6,r6
 200251c:	998d883a 	add	r6,r19,r6
 2002520:	333ffe04 	addi	r12,r6,-8
 2002524:	2017883a 	mov	r11,r4
 2002528:	31800104 	addi	r6,r6,4
 200252c:	34000017 	ldw	r16,0(r6)
 2002530:	31fffd04 	addi	r7,r6,-12
 2002534:	81c0041e 	bne	r16,r7,2002548 <_malloc_r+0x1dc>
 2002538:	0000fb06 	br	2002928 <_malloc_r+0x5bc>
 200253c:	1801030e 	bge	r3,zero,200294c <_malloc_r+0x5e0>
 2002540:	84000317 	ldw	r16,12(r16)
 2002544:	81c0f826 	beq	r16,r7,2002928 <_malloc_r+0x5bc>
 2002548:	80800117 	ldw	r2,4(r16)
 200254c:	1284703a 	and	r2,r2,r10
 2002550:	1447c83a 	sub	r3,r2,r17
 2002554:	48fff90e 	bge	r9,r3,200253c <__alt_mem_shared_ocm+0xfe00153c>
 2002558:	80800317 	ldw	r2,12(r16)
 200255c:	81000217 	ldw	r4,8(r16)
 2002560:	89400054 	ori	r5,r17,1
 2002564:	81400115 	stw	r5,4(r16)
 2002568:	20800315 	stw	r2,12(r4)
 200256c:	11000215 	stw	r4,8(r2)
 2002570:	8463883a 	add	r17,r16,r17
 2002574:	9c400515 	stw	r17,20(r19)
 2002578:	9c400415 	stw	r17,16(r19)
 200257c:	18800054 	ori	r2,r3,1
 2002580:	88800115 	stw	r2,4(r17)
 2002584:	8a000315 	stw	r8,12(r17)
 2002588:	8a000215 	stw	r8,8(r17)
 200258c:	88e3883a 	add	r17,r17,r3
 2002590:	88c00015 	stw	r3,0(r17)
 2002594:	9009883a 	mov	r4,r18
 2002598:	20170380 	call	2017038 <__malloc_unlock>
 200259c:	80800204 	addi	r2,r16,8
 20025a0:	00001b06 	br	2002610 <_malloc_r+0x2a4>
 20025a4:	04400404 	movi	r17,16
 20025a8:	89402536 	bltu	r17,r5,2002640 <_malloc_r+0x2d4>
 20025ac:	20170140 	call	2017014 <__malloc_lock>
 20025b0:	00800184 	movi	r2,6
 20025b4:	01000084 	movi	r4,2
 20025b8:	04c080b4 	movhi	r19,514
 20025bc:	1085883a 	add	r2,r2,r2
 20025c0:	9ceb6704 	addi	r19,r19,-21092
 20025c4:	1085883a 	add	r2,r2,r2
 20025c8:	9885883a 	add	r2,r19,r2
 20025cc:	14000117 	ldw	r16,4(r2)
 20025d0:	10fffe04 	addi	r3,r2,-8
 20025d4:	80c0d926 	beq	r16,r3,200293c <_malloc_r+0x5d0>
 20025d8:	80c00117 	ldw	r3,4(r16)
 20025dc:	81000317 	ldw	r4,12(r16)
 20025e0:	00bfff04 	movi	r2,-4
 20025e4:	1884703a 	and	r2,r3,r2
 20025e8:	81400217 	ldw	r5,8(r16)
 20025ec:	8085883a 	add	r2,r16,r2
 20025f0:	10c00117 	ldw	r3,4(r2)
 20025f4:	29000315 	stw	r4,12(r5)
 20025f8:	21400215 	stw	r5,8(r4)
 20025fc:	18c00054 	ori	r3,r3,1
 2002600:	10c00115 	stw	r3,4(r2)
 2002604:	9009883a 	mov	r4,r18
 2002608:	20170380 	call	2017038 <__malloc_unlock>
 200260c:	80800204 	addi	r2,r16,8
 2002610:	dfc00a17 	ldw	ra,40(sp)
 2002614:	df000917 	ldw	fp,36(sp)
 2002618:	ddc00817 	ldw	r23,32(sp)
 200261c:	dd800717 	ldw	r22,28(sp)
 2002620:	dd400617 	ldw	r21,24(sp)
 2002624:	dd000517 	ldw	r20,20(sp)
 2002628:	dcc00417 	ldw	r19,16(sp)
 200262c:	dc800317 	ldw	r18,12(sp)
 2002630:	dc400217 	ldw	r17,8(sp)
 2002634:	dc000117 	ldw	r16,4(sp)
 2002638:	dec00b04 	addi	sp,sp,44
 200263c:	f800283a 	ret
 2002640:	00800304 	movi	r2,12
 2002644:	90800015 	stw	r2,0(r18)
 2002648:	0005883a 	mov	r2,zero
 200264c:	003ff006 	br	2002610 <__alt_mem_shared_ocm+0xfe001610>
 2002650:	01002004 	movi	r4,128
 2002654:	02001004 	movi	r8,64
 2002658:	01c00fc4 	movi	r7,63
 200265c:	003f6106 	br	20023e4 <__alt_mem_shared_ocm+0xfe0013e4>
 2002660:	4009883a 	mov	r4,r8
 2002664:	003f7506 	br	200243c <__alt_mem_shared_ocm+0xfe00143c>
 2002668:	81000317 	ldw	r4,12(r16)
 200266c:	003fde06 	br	20025e8 <__alt_mem_shared_ocm+0xfe0015e8>
 2002670:	81c5883a 	add	r2,r16,r7
 2002674:	11400117 	ldw	r5,4(r2)
 2002678:	9009883a 	mov	r4,r18
 200267c:	29400054 	ori	r5,r5,1
 2002680:	11400115 	stw	r5,4(r2)
 2002684:	20170380 	call	2017038 <__malloc_unlock>
 2002688:	80800204 	addi	r2,r16,8
 200268c:	003fe006 	br	2002610 <__alt_mem_shared_ocm+0xfe001610>
 2002690:	9c000217 	ldw	r16,8(r19)
 2002694:	00bfff04 	movi	r2,-4
 2002698:	85800117 	ldw	r22,4(r16)
 200269c:	b0ac703a 	and	r22,r22,r2
 20026a0:	b4400336 	bltu	r22,r17,20026b0 <_malloc_r+0x344>
 20026a4:	b445c83a 	sub	r2,r22,r17
 20026a8:	00c003c4 	movi	r3,15
 20026ac:	18805d16 	blt	r3,r2,2002824 <_malloc_r+0x4b8>
 20026b0:	05c080b4 	movhi	r23,514
 20026b4:	008080b4 	movhi	r2,514
 20026b8:	10b83204 	addi	r2,r2,-7992
 20026bc:	bdf12204 	addi	r23,r23,-15224
 20026c0:	15400017 	ldw	r21,0(r2)
 20026c4:	b8c00017 	ldw	r3,0(r23)
 20026c8:	00bfffc4 	movi	r2,-1
 20026cc:	858d883a 	add	r6,r16,r22
 20026d0:	8d6b883a 	add	r21,r17,r21
 20026d4:	1880ea26 	beq	r3,r2,2002a80 <_malloc_r+0x714>
 20026d8:	ad4403c4 	addi	r21,r21,4111
 20026dc:	00bc0004 	movi	r2,-4096
 20026e0:	a8aa703a 	and	r21,r21,r2
 20026e4:	a80b883a 	mov	r5,r21
 20026e8:	9009883a 	mov	r4,r18
 20026ec:	d9800015 	stw	r6,0(sp)
 20026f0:	20031780 	call	2003178 <_sbrk_r>
 20026f4:	1029883a 	mov	r20,r2
 20026f8:	00bfffc4 	movi	r2,-1
 20026fc:	d9800017 	ldw	r6,0(sp)
 2002700:	a080e826 	beq	r20,r2,2002aa4 <_malloc_r+0x738>
 2002704:	a180a636 	bltu	r20,r6,20029a0 <_malloc_r+0x634>
 2002708:	070080b4 	movhi	fp,514
 200270c:	e7383d04 	addi	fp,fp,-7948
 2002710:	e0800017 	ldw	r2,0(fp)
 2002714:	a887883a 	add	r3,r21,r2
 2002718:	e0c00015 	stw	r3,0(fp)
 200271c:	3500e626 	beq	r6,r20,2002ab8 <_malloc_r+0x74c>
 2002720:	b9000017 	ldw	r4,0(r23)
 2002724:	00bfffc4 	movi	r2,-1
 2002728:	2080ee26 	beq	r4,r2,2002ae4 <_malloc_r+0x778>
 200272c:	a185c83a 	sub	r2,r20,r6
 2002730:	10c5883a 	add	r2,r2,r3
 2002734:	e0800015 	stw	r2,0(fp)
 2002738:	a0c001cc 	andi	r3,r20,7
 200273c:	1800bc26 	beq	r3,zero,2002a30 <_malloc_r+0x6c4>
 2002740:	a0e9c83a 	sub	r20,r20,r3
 2002744:	00840204 	movi	r2,4104
 2002748:	a5000204 	addi	r20,r20,8
 200274c:	10c7c83a 	sub	r3,r2,r3
 2002750:	a545883a 	add	r2,r20,r21
 2002754:	1083ffcc 	andi	r2,r2,4095
 2002758:	18abc83a 	sub	r21,r3,r2
 200275c:	a80b883a 	mov	r5,r21
 2002760:	9009883a 	mov	r4,r18
 2002764:	20031780 	call	2003178 <_sbrk_r>
 2002768:	00ffffc4 	movi	r3,-1
 200276c:	10c0e126 	beq	r2,r3,2002af4 <_malloc_r+0x788>
 2002770:	1505c83a 	sub	r2,r2,r20
 2002774:	1545883a 	add	r2,r2,r21
 2002778:	10800054 	ori	r2,r2,1
 200277c:	e0c00017 	ldw	r3,0(fp)
 2002780:	9d000215 	stw	r20,8(r19)
 2002784:	a0800115 	stw	r2,4(r20)
 2002788:	a8c7883a 	add	r3,r21,r3
 200278c:	e0c00015 	stw	r3,0(fp)
 2002790:	84c00e26 	beq	r16,r19,20027cc <_malloc_r+0x460>
 2002794:	018003c4 	movi	r6,15
 2002798:	3580a72e 	bgeu	r6,r22,2002a38 <_malloc_r+0x6cc>
 200279c:	81400117 	ldw	r5,4(r16)
 20027a0:	013ffe04 	movi	r4,-8
 20027a4:	b0bffd04 	addi	r2,r22,-12
 20027a8:	1104703a 	and	r2,r2,r4
 20027ac:	2900004c 	andi	r4,r5,1
 20027b0:	2088b03a 	or	r4,r4,r2
 20027b4:	81000115 	stw	r4,4(r16)
 20027b8:	01400144 	movi	r5,5
 20027bc:	8089883a 	add	r4,r16,r2
 20027c0:	21400115 	stw	r5,4(r4)
 20027c4:	21400215 	stw	r5,8(r4)
 20027c8:	3080cd36 	bltu	r6,r2,2002b00 <_malloc_r+0x794>
 20027cc:	008080b4 	movhi	r2,514
 20027d0:	10b83104 	addi	r2,r2,-7996
 20027d4:	11000017 	ldw	r4,0(r2)
 20027d8:	20c0012e 	bgeu	r4,r3,20027e0 <_malloc_r+0x474>
 20027dc:	10c00015 	stw	r3,0(r2)
 20027e0:	008080b4 	movhi	r2,514
 20027e4:	10b83004 	addi	r2,r2,-8000
 20027e8:	11000017 	ldw	r4,0(r2)
 20027ec:	9c000217 	ldw	r16,8(r19)
 20027f0:	20c0012e 	bgeu	r4,r3,20027f8 <_malloc_r+0x48c>
 20027f4:	10c00015 	stw	r3,0(r2)
 20027f8:	80c00117 	ldw	r3,4(r16)
 20027fc:	00bfff04 	movi	r2,-4
 2002800:	1886703a 	and	r3,r3,r2
 2002804:	1c45c83a 	sub	r2,r3,r17
 2002808:	1c400236 	bltu	r3,r17,2002814 <_malloc_r+0x4a8>
 200280c:	00c003c4 	movi	r3,15
 2002810:	18800416 	blt	r3,r2,2002824 <_malloc_r+0x4b8>
 2002814:	9009883a 	mov	r4,r18
 2002818:	20170380 	call	2017038 <__malloc_unlock>
 200281c:	0005883a 	mov	r2,zero
 2002820:	003f7b06 	br	2002610 <__alt_mem_shared_ocm+0xfe001610>
 2002824:	88c00054 	ori	r3,r17,1
 2002828:	80c00115 	stw	r3,4(r16)
 200282c:	8463883a 	add	r17,r16,r17
 2002830:	10800054 	ori	r2,r2,1
 2002834:	9c400215 	stw	r17,8(r19)
 2002838:	88800115 	stw	r2,4(r17)
 200283c:	9009883a 	mov	r4,r18
 2002840:	20170380 	call	2017038 <__malloc_unlock>
 2002844:	80800204 	addi	r2,r16,8
 2002848:	003f7106 	br	2002610 <__alt_mem_shared_ocm+0xfe001610>
 200284c:	00c00504 	movi	r3,20
 2002850:	18804a2e 	bgeu	r3,r2,200297c <_malloc_r+0x610>
 2002854:	00c01504 	movi	r3,84
 2002858:	18806e36 	bltu	r3,r2,2002a14 <_malloc_r+0x6a8>
 200285c:	8804d33a 	srli	r2,r17,12
 2002860:	12001bc4 	addi	r8,r2,111
 2002864:	11c01b84 	addi	r7,r2,110
 2002868:	4209883a 	add	r4,r8,r8
 200286c:	003edd06 	br	20023e4 <__alt_mem_shared_ocm+0xfe0013e4>
 2002870:	3804d27a 	srli	r2,r7,9
 2002874:	00c00104 	movi	r3,4
 2002878:	1880442e 	bgeu	r3,r2,200298c <_malloc_r+0x620>
 200287c:	00c00504 	movi	r3,20
 2002880:	18808136 	bltu	r3,r2,2002a88 <_malloc_r+0x71c>
 2002884:	11401704 	addi	r5,r2,92
 2002888:	10c016c4 	addi	r3,r2,91
 200288c:	294b883a 	add	r5,r5,r5
 2002890:	294b883a 	add	r5,r5,r5
 2002894:	294b883a 	add	r5,r5,r5
 2002898:	994b883a 	add	r5,r19,r5
 200289c:	28800017 	ldw	r2,0(r5)
 20028a0:	018080b4 	movhi	r6,514
 20028a4:	297ffe04 	addi	r5,r5,-8
 20028a8:	31ab6704 	addi	r6,r6,-21092
 20028ac:	28806526 	beq	r5,r2,2002a44 <_malloc_r+0x6d8>
 20028b0:	01bfff04 	movi	r6,-4
 20028b4:	10c00117 	ldw	r3,4(r2)
 20028b8:	1986703a 	and	r3,r3,r6
 20028bc:	38c0022e 	bgeu	r7,r3,20028c8 <_malloc_r+0x55c>
 20028c0:	10800217 	ldw	r2,8(r2)
 20028c4:	28bffb1e 	bne	r5,r2,20028b4 <__alt_mem_shared_ocm+0xfe0018b4>
 20028c8:	11400317 	ldw	r5,12(r2)
 20028cc:	98c00117 	ldw	r3,4(r19)
 20028d0:	81400315 	stw	r5,12(r16)
 20028d4:	80800215 	stw	r2,8(r16)
 20028d8:	2c000215 	stw	r16,8(r5)
 20028dc:	14000315 	stw	r16,12(r2)
 20028e0:	003ef806 	br	20024c4 <__alt_mem_shared_ocm+0xfe0014c4>
 20028e4:	88c00054 	ori	r3,r17,1
 20028e8:	80c00115 	stw	r3,4(r16)
 20028ec:	8463883a 	add	r17,r16,r17
 20028f0:	34400515 	stw	r17,20(r6)
 20028f4:	34400415 	stw	r17,16(r6)
 20028f8:	10c00054 	ori	r3,r2,1
 20028fc:	8a000315 	stw	r8,12(r17)
 2002900:	8a000215 	stw	r8,8(r17)
 2002904:	88c00115 	stw	r3,4(r17)
 2002908:	88a3883a 	add	r17,r17,r2
 200290c:	88800015 	stw	r2,0(r17)
 2002910:	9009883a 	mov	r4,r18
 2002914:	20170380 	call	2017038 <__malloc_unlock>
 2002918:	80800204 	addi	r2,r16,8
 200291c:	003f3c06 	br	2002610 <__alt_mem_shared_ocm+0xfe001610>
 2002920:	30c00117 	ldw	r3,4(r6)
 2002924:	003ee706 	br	20024c4 <__alt_mem_shared_ocm+0xfe0014c4>
 2002928:	5ac00044 	addi	r11,r11,1
 200292c:	588000cc 	andi	r2,r11,3
 2002930:	31800204 	addi	r6,r6,8
 2002934:	103efd1e 	bne	r2,zero,200252c <__alt_mem_shared_ocm+0xfe00152c>
 2002938:	00002406 	br	20029cc <_malloc_r+0x660>
 200293c:	14000317 	ldw	r16,12(r2)
 2002940:	143f251e 	bne	r2,r16,20025d8 <__alt_mem_shared_ocm+0xfe0015d8>
 2002944:	21000084 	addi	r4,r4,2
 2002948:	003ebc06 	br	200243c <__alt_mem_shared_ocm+0xfe00143c>
 200294c:	8085883a 	add	r2,r16,r2
 2002950:	10c00117 	ldw	r3,4(r2)
 2002954:	81000317 	ldw	r4,12(r16)
 2002958:	81400217 	ldw	r5,8(r16)
 200295c:	18c00054 	ori	r3,r3,1
 2002960:	10c00115 	stw	r3,4(r2)
 2002964:	29000315 	stw	r4,12(r5)
 2002968:	21400215 	stw	r5,8(r4)
 200296c:	9009883a 	mov	r4,r18
 2002970:	20170380 	call	2017038 <__malloc_unlock>
 2002974:	80800204 	addi	r2,r16,8
 2002978:	003f2506 	br	2002610 <__alt_mem_shared_ocm+0xfe001610>
 200297c:	12001704 	addi	r8,r2,92
 2002980:	11c016c4 	addi	r7,r2,91
 2002984:	4209883a 	add	r4,r8,r8
 2002988:	003e9606 	br	20023e4 <__alt_mem_shared_ocm+0xfe0013e4>
 200298c:	3804d1ba 	srli	r2,r7,6
 2002990:	11400e44 	addi	r5,r2,57
 2002994:	10c00e04 	addi	r3,r2,56
 2002998:	294b883a 	add	r5,r5,r5
 200299c:	003fbc06 	br	2002890 <__alt_mem_shared_ocm+0xfe001890>
 20029a0:	84ff5926 	beq	r16,r19,2002708 <__alt_mem_shared_ocm+0xfe001708>
 20029a4:	008080b4 	movhi	r2,514
 20029a8:	10ab6704 	addi	r2,r2,-21092
 20029ac:	14000217 	ldw	r16,8(r2)
 20029b0:	00bfff04 	movi	r2,-4
 20029b4:	80c00117 	ldw	r3,4(r16)
 20029b8:	1886703a 	and	r3,r3,r2
 20029bc:	003f9106 	br	2002804 <__alt_mem_shared_ocm+0xfe001804>
 20029c0:	60800217 	ldw	r2,8(r12)
 20029c4:	213fffc4 	addi	r4,r4,-1
 20029c8:	1300651e 	bne	r2,r12,2002b60 <_malloc_r+0x7f4>
 20029cc:	208000cc 	andi	r2,r4,3
 20029d0:	633ffe04 	addi	r12,r12,-8
 20029d4:	103ffa1e 	bne	r2,zero,20029c0 <__alt_mem_shared_ocm+0xfe0019c0>
 20029d8:	98800117 	ldw	r2,4(r19)
 20029dc:	0146303a 	nor	r3,zero,r5
 20029e0:	1884703a 	and	r2,r3,r2
 20029e4:	98800115 	stw	r2,4(r19)
 20029e8:	294b883a 	add	r5,r5,r5
 20029ec:	117f2836 	bltu	r2,r5,2002690 <__alt_mem_shared_ocm+0xfe001690>
 20029f0:	283f2726 	beq	r5,zero,2002690 <__alt_mem_shared_ocm+0xfe001690>
 20029f4:	2886703a 	and	r3,r5,r2
 20029f8:	5809883a 	mov	r4,r11
 20029fc:	183ec31e 	bne	r3,zero,200250c <__alt_mem_shared_ocm+0xfe00150c>
 2002a00:	294b883a 	add	r5,r5,r5
 2002a04:	2886703a 	and	r3,r5,r2
 2002a08:	21000104 	addi	r4,r4,4
 2002a0c:	183ffc26 	beq	r3,zero,2002a00 <__alt_mem_shared_ocm+0xfe001a00>
 2002a10:	003ebe06 	br	200250c <__alt_mem_shared_ocm+0xfe00150c>
 2002a14:	00c05504 	movi	r3,340
 2002a18:	18801236 	bltu	r3,r2,2002a64 <_malloc_r+0x6f8>
 2002a1c:	8804d3fa 	srli	r2,r17,15
 2002a20:	12001e04 	addi	r8,r2,120
 2002a24:	11c01dc4 	addi	r7,r2,119
 2002a28:	4209883a 	add	r4,r8,r8
 2002a2c:	003e6d06 	br	20023e4 <__alt_mem_shared_ocm+0xfe0013e4>
 2002a30:	00c40004 	movi	r3,4096
 2002a34:	003f4606 	br	2002750 <__alt_mem_shared_ocm+0xfe001750>
 2002a38:	00800044 	movi	r2,1
 2002a3c:	a0800115 	stw	r2,4(r20)
 2002a40:	003f7406 	br	2002814 <__alt_mem_shared_ocm+0xfe001814>
 2002a44:	1805d0ba 	srai	r2,r3,2
 2002a48:	01c00044 	movi	r7,1
 2002a4c:	30c00117 	ldw	r3,4(r6)
 2002a50:	388e983a 	sll	r7,r7,r2
 2002a54:	2805883a 	mov	r2,r5
 2002a58:	38c6b03a 	or	r3,r7,r3
 2002a5c:	30c00115 	stw	r3,4(r6)
 2002a60:	003f9b06 	br	20028d0 <__alt_mem_shared_ocm+0xfe0018d0>
 2002a64:	00c15504 	movi	r3,1364
 2002a68:	18801a36 	bltu	r3,r2,2002ad4 <_malloc_r+0x768>
 2002a6c:	8804d4ba 	srli	r2,r17,18
 2002a70:	12001f44 	addi	r8,r2,125
 2002a74:	11c01f04 	addi	r7,r2,124
 2002a78:	4209883a 	add	r4,r8,r8
 2002a7c:	003e5906 	br	20023e4 <__alt_mem_shared_ocm+0xfe0013e4>
 2002a80:	ad400404 	addi	r21,r21,16
 2002a84:	003f1706 	br	20026e4 <__alt_mem_shared_ocm+0xfe0016e4>
 2002a88:	00c01504 	movi	r3,84
 2002a8c:	18802336 	bltu	r3,r2,2002b1c <_malloc_r+0x7b0>
 2002a90:	3804d33a 	srli	r2,r7,12
 2002a94:	11401bc4 	addi	r5,r2,111
 2002a98:	10c01b84 	addi	r3,r2,110
 2002a9c:	294b883a 	add	r5,r5,r5
 2002aa0:	003f7b06 	br	2002890 <__alt_mem_shared_ocm+0xfe001890>
 2002aa4:	9c000217 	ldw	r16,8(r19)
 2002aa8:	00bfff04 	movi	r2,-4
 2002aac:	80c00117 	ldw	r3,4(r16)
 2002ab0:	1886703a 	and	r3,r3,r2
 2002ab4:	003f5306 	br	2002804 <__alt_mem_shared_ocm+0xfe001804>
 2002ab8:	3083ffcc 	andi	r2,r6,4095
 2002abc:	103f181e 	bne	r2,zero,2002720 <__alt_mem_shared_ocm+0xfe001720>
 2002ac0:	99000217 	ldw	r4,8(r19)
 2002ac4:	b545883a 	add	r2,r22,r21
 2002ac8:	10800054 	ori	r2,r2,1
 2002acc:	20800115 	stw	r2,4(r4)
 2002ad0:	003f3e06 	br	20027cc <__alt_mem_shared_ocm+0xfe0017cc>
 2002ad4:	01003f84 	movi	r4,254
 2002ad8:	02001fc4 	movi	r8,127
 2002adc:	01c01f84 	movi	r7,126
 2002ae0:	003e4006 	br	20023e4 <__alt_mem_shared_ocm+0xfe0013e4>
 2002ae4:	008080b4 	movhi	r2,514
 2002ae8:	10b12204 	addi	r2,r2,-15224
 2002aec:	15000015 	stw	r20,0(r2)
 2002af0:	003f1106 	br	2002738 <__alt_mem_shared_ocm+0xfe001738>
 2002af4:	00800044 	movi	r2,1
 2002af8:	002b883a 	mov	r21,zero
 2002afc:	003f1f06 	br	200277c <__alt_mem_shared_ocm+0xfe00177c>
 2002b00:	81400204 	addi	r5,r16,8
 2002b04:	9009883a 	mov	r4,r18
 2002b08:	200173c0 	call	200173c <_free_r>
 2002b0c:	008080b4 	movhi	r2,514
 2002b10:	10b83d04 	addi	r2,r2,-7948
 2002b14:	10c00017 	ldw	r3,0(r2)
 2002b18:	003f2c06 	br	20027cc <__alt_mem_shared_ocm+0xfe0017cc>
 2002b1c:	00c05504 	movi	r3,340
 2002b20:	18800536 	bltu	r3,r2,2002b38 <_malloc_r+0x7cc>
 2002b24:	3804d3fa 	srli	r2,r7,15
 2002b28:	11401e04 	addi	r5,r2,120
 2002b2c:	10c01dc4 	addi	r3,r2,119
 2002b30:	294b883a 	add	r5,r5,r5
 2002b34:	003f5606 	br	2002890 <__alt_mem_shared_ocm+0xfe001890>
 2002b38:	00c15504 	movi	r3,1364
 2002b3c:	18800536 	bltu	r3,r2,2002b54 <_malloc_r+0x7e8>
 2002b40:	3804d4ba 	srli	r2,r7,18
 2002b44:	11401f44 	addi	r5,r2,125
 2002b48:	10c01f04 	addi	r3,r2,124
 2002b4c:	294b883a 	add	r5,r5,r5
 2002b50:	003f4f06 	br	2002890 <__alt_mem_shared_ocm+0xfe001890>
 2002b54:	01403f84 	movi	r5,254
 2002b58:	00c01f84 	movi	r3,126
 2002b5c:	003f4c06 	br	2002890 <__alt_mem_shared_ocm+0xfe001890>
 2002b60:	98800117 	ldw	r2,4(r19)
 2002b64:	003fa006 	br	20029e8 <__alt_mem_shared_ocm+0xfe0019e8>
 2002b68:	8808d0fa 	srli	r4,r17,3
 2002b6c:	20800044 	addi	r2,r4,1
 2002b70:	1085883a 	add	r2,r2,r2
 2002b74:	003e9006 	br	20025b8 <__alt_mem_shared_ocm+0xfe0015b8>

02002b78 <memcpy>:
 2002b78:	defffd04 	addi	sp,sp,-12
 2002b7c:	dfc00215 	stw	ra,8(sp)
 2002b80:	dc400115 	stw	r17,4(sp)
 2002b84:	dc000015 	stw	r16,0(sp)
 2002b88:	00c003c4 	movi	r3,15
 2002b8c:	2005883a 	mov	r2,r4
 2002b90:	1980452e 	bgeu	r3,r6,2002ca8 <memcpy+0x130>
 2002b94:	2906b03a 	or	r3,r5,r4
 2002b98:	18c000cc 	andi	r3,r3,3
 2002b9c:	1800441e 	bne	r3,zero,2002cb0 <memcpy+0x138>
 2002ba0:	347ffc04 	addi	r17,r6,-16
 2002ba4:	8822d13a 	srli	r17,r17,4
 2002ba8:	28c00104 	addi	r3,r5,4
 2002bac:	23400104 	addi	r13,r4,4
 2002bb0:	8820913a 	slli	r16,r17,4
 2002bb4:	2b000204 	addi	r12,r5,8
 2002bb8:	22c00204 	addi	r11,r4,8
 2002bbc:	84000504 	addi	r16,r16,20
 2002bc0:	2a800304 	addi	r10,r5,12
 2002bc4:	22400304 	addi	r9,r4,12
 2002bc8:	2c21883a 	add	r16,r5,r16
 2002bcc:	2811883a 	mov	r8,r5
 2002bd0:	200f883a 	mov	r7,r4
 2002bd4:	41000017 	ldw	r4,0(r8)
 2002bd8:	1fc00017 	ldw	ra,0(r3)
 2002bdc:	63c00017 	ldw	r15,0(r12)
 2002be0:	39000015 	stw	r4,0(r7)
 2002be4:	53800017 	ldw	r14,0(r10)
 2002be8:	6fc00015 	stw	ra,0(r13)
 2002bec:	5bc00015 	stw	r15,0(r11)
 2002bf0:	4b800015 	stw	r14,0(r9)
 2002bf4:	18c00404 	addi	r3,r3,16
 2002bf8:	39c00404 	addi	r7,r7,16
 2002bfc:	42000404 	addi	r8,r8,16
 2002c00:	6b400404 	addi	r13,r13,16
 2002c04:	63000404 	addi	r12,r12,16
 2002c08:	5ac00404 	addi	r11,r11,16
 2002c0c:	52800404 	addi	r10,r10,16
 2002c10:	4a400404 	addi	r9,r9,16
 2002c14:	1c3fef1e 	bne	r3,r16,2002bd4 <__alt_mem_shared_ocm+0xfe001bd4>
 2002c18:	89c00044 	addi	r7,r17,1
 2002c1c:	380e913a 	slli	r7,r7,4
 2002c20:	310003cc 	andi	r4,r6,15
 2002c24:	02c000c4 	movi	r11,3
 2002c28:	11c7883a 	add	r3,r2,r7
 2002c2c:	29cb883a 	add	r5,r5,r7
 2002c30:	5900212e 	bgeu	r11,r4,2002cb8 <memcpy+0x140>
 2002c34:	1813883a 	mov	r9,r3
 2002c38:	2811883a 	mov	r8,r5
 2002c3c:	200f883a 	mov	r7,r4
 2002c40:	42800017 	ldw	r10,0(r8)
 2002c44:	4a400104 	addi	r9,r9,4
 2002c48:	39ffff04 	addi	r7,r7,-4
 2002c4c:	4abfff15 	stw	r10,-4(r9)
 2002c50:	42000104 	addi	r8,r8,4
 2002c54:	59fffa36 	bltu	r11,r7,2002c40 <__alt_mem_shared_ocm+0xfe001c40>
 2002c58:	213fff04 	addi	r4,r4,-4
 2002c5c:	2008d0ba 	srli	r4,r4,2
 2002c60:	318000cc 	andi	r6,r6,3
 2002c64:	21000044 	addi	r4,r4,1
 2002c68:	2109883a 	add	r4,r4,r4
 2002c6c:	2109883a 	add	r4,r4,r4
 2002c70:	1907883a 	add	r3,r3,r4
 2002c74:	290b883a 	add	r5,r5,r4
 2002c78:	30000626 	beq	r6,zero,2002c94 <memcpy+0x11c>
 2002c7c:	198d883a 	add	r6,r3,r6
 2002c80:	29c00003 	ldbu	r7,0(r5)
 2002c84:	18c00044 	addi	r3,r3,1
 2002c88:	29400044 	addi	r5,r5,1
 2002c8c:	19ffffc5 	stb	r7,-1(r3)
 2002c90:	19bffb1e 	bne	r3,r6,2002c80 <__alt_mem_shared_ocm+0xfe001c80>
 2002c94:	dfc00217 	ldw	ra,8(sp)
 2002c98:	dc400117 	ldw	r17,4(sp)
 2002c9c:	dc000017 	ldw	r16,0(sp)
 2002ca0:	dec00304 	addi	sp,sp,12
 2002ca4:	f800283a 	ret
 2002ca8:	2007883a 	mov	r3,r4
 2002cac:	003ff206 	br	2002c78 <__alt_mem_shared_ocm+0xfe001c78>
 2002cb0:	2007883a 	mov	r3,r4
 2002cb4:	003ff106 	br	2002c7c <__alt_mem_shared_ocm+0xfe001c7c>
 2002cb8:	200d883a 	mov	r6,r4
 2002cbc:	003fee06 	br	2002c78 <__alt_mem_shared_ocm+0xfe001c78>

02002cc0 <memset>:
 2002cc0:	20c000cc 	andi	r3,r4,3
 2002cc4:	2005883a 	mov	r2,r4
 2002cc8:	18004426 	beq	r3,zero,2002ddc <memset+0x11c>
 2002ccc:	31ffffc4 	addi	r7,r6,-1
 2002cd0:	30004026 	beq	r6,zero,2002dd4 <memset+0x114>
 2002cd4:	2813883a 	mov	r9,r5
 2002cd8:	200d883a 	mov	r6,r4
 2002cdc:	2007883a 	mov	r3,r4
 2002ce0:	00000406 	br	2002cf4 <memset+0x34>
 2002ce4:	3a3fffc4 	addi	r8,r7,-1
 2002ce8:	31800044 	addi	r6,r6,1
 2002cec:	38003926 	beq	r7,zero,2002dd4 <memset+0x114>
 2002cf0:	400f883a 	mov	r7,r8
 2002cf4:	18c00044 	addi	r3,r3,1
 2002cf8:	32400005 	stb	r9,0(r6)
 2002cfc:	1a0000cc 	andi	r8,r3,3
 2002d00:	403ff81e 	bne	r8,zero,2002ce4 <__alt_mem_shared_ocm+0xfe001ce4>
 2002d04:	010000c4 	movi	r4,3
 2002d08:	21c02d2e 	bgeu	r4,r7,2002dc0 <memset+0x100>
 2002d0c:	29003fcc 	andi	r4,r5,255
 2002d10:	200c923a 	slli	r6,r4,8
 2002d14:	3108b03a 	or	r4,r6,r4
 2002d18:	200c943a 	slli	r6,r4,16
 2002d1c:	218cb03a 	or	r6,r4,r6
 2002d20:	010003c4 	movi	r4,15
 2002d24:	21c0182e 	bgeu	r4,r7,2002d88 <memset+0xc8>
 2002d28:	3b3ffc04 	addi	r12,r7,-16
 2002d2c:	6018d13a 	srli	r12,r12,4
 2002d30:	1a000104 	addi	r8,r3,4
 2002d34:	1ac00204 	addi	r11,r3,8
 2002d38:	6008913a 	slli	r4,r12,4
 2002d3c:	1a800304 	addi	r10,r3,12
 2002d40:	1813883a 	mov	r9,r3
 2002d44:	21000504 	addi	r4,r4,20
 2002d48:	1909883a 	add	r4,r3,r4
 2002d4c:	49800015 	stw	r6,0(r9)
 2002d50:	41800015 	stw	r6,0(r8)
 2002d54:	59800015 	stw	r6,0(r11)
 2002d58:	51800015 	stw	r6,0(r10)
 2002d5c:	42000404 	addi	r8,r8,16
 2002d60:	4a400404 	addi	r9,r9,16
 2002d64:	5ac00404 	addi	r11,r11,16
 2002d68:	52800404 	addi	r10,r10,16
 2002d6c:	413ff71e 	bne	r8,r4,2002d4c <__alt_mem_shared_ocm+0xfe001d4c>
 2002d70:	63000044 	addi	r12,r12,1
 2002d74:	6018913a 	slli	r12,r12,4
 2002d78:	39c003cc 	andi	r7,r7,15
 2002d7c:	010000c4 	movi	r4,3
 2002d80:	1b07883a 	add	r3,r3,r12
 2002d84:	21c00e2e 	bgeu	r4,r7,2002dc0 <memset+0x100>
 2002d88:	1813883a 	mov	r9,r3
 2002d8c:	3811883a 	mov	r8,r7
 2002d90:	010000c4 	movi	r4,3
 2002d94:	49800015 	stw	r6,0(r9)
 2002d98:	423fff04 	addi	r8,r8,-4
 2002d9c:	4a400104 	addi	r9,r9,4
 2002da0:	223ffc36 	bltu	r4,r8,2002d94 <__alt_mem_shared_ocm+0xfe001d94>
 2002da4:	393fff04 	addi	r4,r7,-4
 2002da8:	2008d0ba 	srli	r4,r4,2
 2002dac:	39c000cc 	andi	r7,r7,3
 2002db0:	21000044 	addi	r4,r4,1
 2002db4:	2109883a 	add	r4,r4,r4
 2002db8:	2109883a 	add	r4,r4,r4
 2002dbc:	1907883a 	add	r3,r3,r4
 2002dc0:	38000526 	beq	r7,zero,2002dd8 <memset+0x118>
 2002dc4:	19cf883a 	add	r7,r3,r7
 2002dc8:	19400005 	stb	r5,0(r3)
 2002dcc:	18c00044 	addi	r3,r3,1
 2002dd0:	38fffd1e 	bne	r7,r3,2002dc8 <__alt_mem_shared_ocm+0xfe001dc8>
 2002dd4:	f800283a 	ret
 2002dd8:	f800283a 	ret
 2002ddc:	2007883a 	mov	r3,r4
 2002de0:	300f883a 	mov	r7,r6
 2002de4:	003fc706 	br	2002d04 <__alt_mem_shared_ocm+0xfe001d04>

02002de8 <_open_r>:
 2002de8:	defffd04 	addi	sp,sp,-12
 2002dec:	2805883a 	mov	r2,r5
 2002df0:	dc000015 	stw	r16,0(sp)
 2002df4:	040080b4 	movhi	r16,514
 2002df8:	dc400115 	stw	r17,4(sp)
 2002dfc:	300b883a 	mov	r5,r6
 2002e00:	84382f04 	addi	r16,r16,-8004
 2002e04:	2023883a 	mov	r17,r4
 2002e08:	380d883a 	mov	r6,r7
 2002e0c:	1009883a 	mov	r4,r2
 2002e10:	dfc00215 	stw	ra,8(sp)
 2002e14:	80000015 	stw	zero,0(r16)
 2002e18:	201715c0 	call	201715c <open>
 2002e1c:	00ffffc4 	movi	r3,-1
 2002e20:	10c00526 	beq	r2,r3,2002e38 <_open_r+0x50>
 2002e24:	dfc00217 	ldw	ra,8(sp)
 2002e28:	dc400117 	ldw	r17,4(sp)
 2002e2c:	dc000017 	ldw	r16,0(sp)
 2002e30:	dec00304 	addi	sp,sp,12
 2002e34:	f800283a 	ret
 2002e38:	80c00017 	ldw	r3,0(r16)
 2002e3c:	183ff926 	beq	r3,zero,2002e24 <__alt_mem_shared_ocm+0xfe001e24>
 2002e40:	88c00015 	stw	r3,0(r17)
 2002e44:	003ff706 	br	2002e24 <__alt_mem_shared_ocm+0xfe001e24>

02002e48 <_printf_r>:
 2002e48:	defffd04 	addi	sp,sp,-12
 2002e4c:	2805883a 	mov	r2,r5
 2002e50:	dfc00015 	stw	ra,0(sp)
 2002e54:	d9800115 	stw	r6,4(sp)
 2002e58:	d9c00215 	stw	r7,8(sp)
 2002e5c:	21400217 	ldw	r5,8(r4)
 2002e60:	d9c00104 	addi	r7,sp,4
 2002e64:	100d883a 	mov	r6,r2
 2002e68:	20057a00 	call	20057a0 <___vfprintf_internal_r>
 2002e6c:	dfc00017 	ldw	ra,0(sp)
 2002e70:	dec00304 	addi	sp,sp,12
 2002e74:	f800283a 	ret

02002e78 <printf>:
 2002e78:	defffc04 	addi	sp,sp,-16
 2002e7c:	dfc00015 	stw	ra,0(sp)
 2002e80:	d9400115 	stw	r5,4(sp)
 2002e84:	d9800215 	stw	r6,8(sp)
 2002e88:	d9c00315 	stw	r7,12(sp)
 2002e8c:	008080b4 	movhi	r2,514
 2002e90:	10b12104 	addi	r2,r2,-15228
 2002e94:	10800017 	ldw	r2,0(r2)
 2002e98:	200b883a 	mov	r5,r4
 2002e9c:	d9800104 	addi	r6,sp,4
 2002ea0:	11000217 	ldw	r4,8(r2)
 2002ea4:	20079980 	call	2007998 <__vfprintf_internal>
 2002ea8:	dfc00017 	ldw	ra,0(sp)
 2002eac:	dec00404 	addi	sp,sp,16
 2002eb0:	f800283a 	ret

02002eb4 <_puts_r>:
 2002eb4:	defff604 	addi	sp,sp,-40
 2002eb8:	dc000715 	stw	r16,28(sp)
 2002ebc:	2021883a 	mov	r16,r4
 2002ec0:	2809883a 	mov	r4,r5
 2002ec4:	dc400815 	stw	r17,32(sp)
 2002ec8:	dfc00915 	stw	ra,36(sp)
 2002ecc:	2823883a 	mov	r17,r5
 2002ed0:	20035300 	call	2003530 <strlen>
 2002ed4:	10c00044 	addi	r3,r2,1
 2002ed8:	d8800115 	stw	r2,4(sp)
 2002edc:	008080b4 	movhi	r2,514
 2002ee0:	10a84104 	addi	r2,r2,-24316
 2002ee4:	d8800215 	stw	r2,8(sp)
 2002ee8:	00800044 	movi	r2,1
 2002eec:	d8800315 	stw	r2,12(sp)
 2002ef0:	00800084 	movi	r2,2
 2002ef4:	dc400015 	stw	r17,0(sp)
 2002ef8:	d8c00615 	stw	r3,24(sp)
 2002efc:	dec00415 	stw	sp,16(sp)
 2002f00:	d8800515 	stw	r2,20(sp)
 2002f04:	80000226 	beq	r16,zero,2002f10 <_puts_r+0x5c>
 2002f08:	80800e17 	ldw	r2,56(r16)
 2002f0c:	10001426 	beq	r2,zero,2002f60 <_puts_r+0xac>
 2002f10:	81400217 	ldw	r5,8(r16)
 2002f14:	2880030b 	ldhu	r2,12(r5)
 2002f18:	10c8000c 	andi	r3,r2,8192
 2002f1c:	1800061e 	bne	r3,zero,2002f38 <_puts_r+0x84>
 2002f20:	29001917 	ldw	r4,100(r5)
 2002f24:	00f7ffc4 	movi	r3,-8193
 2002f28:	10880014 	ori	r2,r2,8192
 2002f2c:	20c6703a 	and	r3,r4,r3
 2002f30:	2880030d 	sth	r2,12(r5)
 2002f34:	28c01915 	stw	r3,100(r5)
 2002f38:	d9800404 	addi	r6,sp,16
 2002f3c:	8009883a 	mov	r4,r16
 2002f40:	200ae380 	call	200ae38 <__sfvwrite_r>
 2002f44:	1000091e 	bne	r2,zero,2002f6c <_puts_r+0xb8>
 2002f48:	00800284 	movi	r2,10
 2002f4c:	dfc00917 	ldw	ra,36(sp)
 2002f50:	dc400817 	ldw	r17,32(sp)
 2002f54:	dc000717 	ldw	r16,28(sp)
 2002f58:	dec00a04 	addi	sp,sp,40
 2002f5c:	f800283a 	ret
 2002f60:	8009883a 	mov	r4,r16
 2002f64:	200125c0 	call	200125c <__sinit>
 2002f68:	003fe906 	br	2002f10 <__alt_mem_shared_ocm+0xfe001f10>
 2002f6c:	00bfffc4 	movi	r2,-1
 2002f70:	003ff606 	br	2002f4c <__alt_mem_shared_ocm+0xfe001f4c>

02002f74 <puts>:
 2002f74:	008080b4 	movhi	r2,514
 2002f78:	10b12104 	addi	r2,r2,-15228
 2002f7c:	200b883a 	mov	r5,r4
 2002f80:	11000017 	ldw	r4,0(r2)
 2002f84:	2002eb41 	jmpi	2002eb4 <_puts_r>

02002f88 <lflush>:
 2002f88:	2080030b 	ldhu	r2,12(r4)
 2002f8c:	00c00244 	movi	r3,9
 2002f90:	1080024c 	andi	r2,r2,9
 2002f94:	10c00226 	beq	r2,r3,2002fa0 <lflush+0x18>
 2002f98:	0005883a 	mov	r2,zero
 2002f9c:	f800283a 	ret
 2002fa0:	2000edc1 	jmpi	2000edc <fflush>

02002fa4 <__srefill_r>:
 2002fa4:	defffc04 	addi	sp,sp,-16
 2002fa8:	dc400115 	stw	r17,4(sp)
 2002fac:	dc000015 	stw	r16,0(sp)
 2002fb0:	dfc00315 	stw	ra,12(sp)
 2002fb4:	dc800215 	stw	r18,8(sp)
 2002fb8:	2023883a 	mov	r17,r4
 2002fbc:	2821883a 	mov	r16,r5
 2002fc0:	20000226 	beq	r4,zero,2002fcc <__srefill_r+0x28>
 2002fc4:	20800e17 	ldw	r2,56(r4)
 2002fc8:	10003c26 	beq	r2,zero,20030bc <__srefill_r+0x118>
 2002fcc:	80c0030b 	ldhu	r3,12(r16)
 2002fd0:	1908000c 	andi	r4,r3,8192
 2002fd4:	1805883a 	mov	r2,r3
 2002fd8:	2000071e 	bne	r4,zero,2002ff8 <__srefill_r+0x54>
 2002fdc:	81001917 	ldw	r4,100(r16)
 2002fe0:	18880014 	ori	r2,r3,8192
 2002fe4:	00f7ffc4 	movi	r3,-8193
 2002fe8:	20c8703a 	and	r4,r4,r3
 2002fec:	8080030d 	sth	r2,12(r16)
 2002ff0:	1007883a 	mov	r3,r2
 2002ff4:	81001915 	stw	r4,100(r16)
 2002ff8:	80000115 	stw	zero,4(r16)
 2002ffc:	1100080c 	andi	r4,r2,32
 2003000:	2000571e 	bne	r4,zero,2003160 <__srefill_r+0x1bc>
 2003004:	1100010c 	andi	r4,r2,4
 2003008:	20001f26 	beq	r4,zero,2003088 <__srefill_r+0xe4>
 200300c:	81400c17 	ldw	r5,48(r16)
 2003010:	28000826 	beq	r5,zero,2003034 <__srefill_r+0x90>
 2003014:	80801004 	addi	r2,r16,64
 2003018:	28800226 	beq	r5,r2,2003024 <__srefill_r+0x80>
 200301c:	8809883a 	mov	r4,r17
 2003020:	200173c0 	call	200173c <_free_r>
 2003024:	80800f17 	ldw	r2,60(r16)
 2003028:	80000c15 	stw	zero,48(r16)
 200302c:	80800115 	stw	r2,4(r16)
 2003030:	1000391e 	bne	r2,zero,2003118 <__srefill_r+0x174>
 2003034:	80800417 	ldw	r2,16(r16)
 2003038:	10004b26 	beq	r2,zero,2003168 <__srefill_r+0x1c4>
 200303c:	8480030b 	ldhu	r18,12(r16)
 2003040:	908000cc 	andi	r2,r18,3
 2003044:	10001f1e 	bne	r2,zero,20030c4 <__srefill_r+0x120>
 2003048:	81800417 	ldw	r6,16(r16)
 200304c:	80800817 	ldw	r2,32(r16)
 2003050:	81c00517 	ldw	r7,20(r16)
 2003054:	81400717 	ldw	r5,28(r16)
 2003058:	81800015 	stw	r6,0(r16)
 200305c:	8809883a 	mov	r4,r17
 2003060:	103ee83a 	callr	r2
 2003064:	80800115 	stw	r2,4(r16)
 2003068:	00800e0e 	bge	zero,r2,20030a4 <__srefill_r+0x100>
 200306c:	0005883a 	mov	r2,zero
 2003070:	dfc00317 	ldw	ra,12(sp)
 2003074:	dc800217 	ldw	r18,8(sp)
 2003078:	dc400117 	ldw	r17,4(sp)
 200307c:	dc000017 	ldw	r16,0(sp)
 2003080:	dec00404 	addi	sp,sp,16
 2003084:	f800283a 	ret
 2003088:	1100040c 	andi	r4,r2,16
 200308c:	20003026 	beq	r4,zero,2003150 <__srefill_r+0x1ac>
 2003090:	1080020c 	andi	r2,r2,8
 2003094:	1000241e 	bne	r2,zero,2003128 <__srefill_r+0x184>
 2003098:	18c00114 	ori	r3,r3,4
 200309c:	80c0030d 	sth	r3,12(r16)
 20030a0:	003fe406 	br	2003034 <__alt_mem_shared_ocm+0xfe002034>
 20030a4:	80c0030b 	ldhu	r3,12(r16)
 20030a8:	1000161e 	bne	r2,zero,2003104 <__srefill_r+0x160>
 20030ac:	18c00814 	ori	r3,r3,32
 20030b0:	00bfffc4 	movi	r2,-1
 20030b4:	80c0030d 	sth	r3,12(r16)
 20030b8:	003fed06 	br	2003070 <__alt_mem_shared_ocm+0xfe002070>
 20030bc:	200125c0 	call	200125c <__sinit>
 20030c0:	003fc206 	br	2002fcc <__alt_mem_shared_ocm+0xfe001fcc>
 20030c4:	008080b4 	movhi	r2,514
 20030c8:	10b12004 	addi	r2,r2,-15232
 20030cc:	11000017 	ldw	r4,0(r2)
 20030d0:	01408034 	movhi	r5,512
 20030d4:	00800044 	movi	r2,1
 20030d8:	294be204 	addi	r5,r5,12168
 20030dc:	8080030d 	sth	r2,12(r16)
 20030e0:	2001f280 	call	2001f28 <_fwalk>
 20030e4:	00800244 	movi	r2,9
 20030e8:	8480030d 	sth	r18,12(r16)
 20030ec:	9480024c 	andi	r18,r18,9
 20030f0:	90bfd51e 	bne	r18,r2,2003048 <__alt_mem_shared_ocm+0xfe002048>
 20030f4:	800b883a 	mov	r5,r16
 20030f8:	8809883a 	mov	r4,r17
 20030fc:	2000c640 	call	2000c64 <__sflush_r>
 2003100:	003fd106 	br	2003048 <__alt_mem_shared_ocm+0xfe002048>
 2003104:	18c01014 	ori	r3,r3,64
 2003108:	80000115 	stw	zero,4(r16)
 200310c:	00bfffc4 	movi	r2,-1
 2003110:	80c0030d 	sth	r3,12(r16)
 2003114:	003fd606 	br	2003070 <__alt_mem_shared_ocm+0xfe002070>
 2003118:	80c00e17 	ldw	r3,56(r16)
 200311c:	0005883a 	mov	r2,zero
 2003120:	80c00015 	stw	r3,0(r16)
 2003124:	003fd206 	br	2003070 <__alt_mem_shared_ocm+0xfe002070>
 2003128:	800b883a 	mov	r5,r16
 200312c:	8809883a 	mov	r4,r17
 2003130:	2000e800 	call	2000e80 <_fflush_r>
 2003134:	10000a1e 	bne	r2,zero,2003160 <__srefill_r+0x1bc>
 2003138:	8080030b 	ldhu	r2,12(r16)
 200313c:	00fffdc4 	movi	r3,-9
 2003140:	80000215 	stw	zero,8(r16)
 2003144:	1886703a 	and	r3,r3,r2
 2003148:	80000615 	stw	zero,24(r16)
 200314c:	003fd206 	br	2003098 <__alt_mem_shared_ocm+0xfe002098>
 2003150:	00800244 	movi	r2,9
 2003154:	88800015 	stw	r2,0(r17)
 2003158:	18c01014 	ori	r3,r3,64
 200315c:	80c0030d 	sth	r3,12(r16)
 2003160:	00bfffc4 	movi	r2,-1
 2003164:	003fc206 	br	2003070 <__alt_mem_shared_ocm+0xfe002070>
 2003168:	800b883a 	mov	r5,r16
 200316c:	8809883a 	mov	r4,r17
 2003170:	20021b00 	call	20021b0 <__smakebuf_r>
 2003174:	003fb106 	br	200303c <__alt_mem_shared_ocm+0xfe00203c>

02003178 <_sbrk_r>:
 2003178:	defffd04 	addi	sp,sp,-12
 200317c:	dc000015 	stw	r16,0(sp)
 2003180:	040080b4 	movhi	r16,514
 2003184:	dc400115 	stw	r17,4(sp)
 2003188:	84382f04 	addi	r16,r16,-8004
 200318c:	2023883a 	mov	r17,r4
 2003190:	2809883a 	mov	r4,r5
 2003194:	dfc00215 	stw	ra,8(sp)
 2003198:	80000015 	stw	zero,0(r16)
 200319c:	201744c0 	call	201744c <sbrk>
 20031a0:	00ffffc4 	movi	r3,-1
 20031a4:	10c00526 	beq	r2,r3,20031bc <_sbrk_r+0x44>
 20031a8:	dfc00217 	ldw	ra,8(sp)
 20031ac:	dc400117 	ldw	r17,4(sp)
 20031b0:	dc000017 	ldw	r16,0(sp)
 20031b4:	dec00304 	addi	sp,sp,12
 20031b8:	f800283a 	ret
 20031bc:	80c00017 	ldw	r3,0(r16)
 20031c0:	183ff926 	beq	r3,zero,20031a8 <__alt_mem_shared_ocm+0xfe0021a8>
 20031c4:	88c00015 	stw	r3,0(r17)
 20031c8:	003ff706 	br	20031a8 <__alt_mem_shared_ocm+0xfe0021a8>

020031cc <scanf>:
 20031cc:	defffc04 	addi	sp,sp,-16
 20031d0:	dfc00015 	stw	ra,0(sp)
 20031d4:	d9400115 	stw	r5,4(sp)
 20031d8:	d9800215 	stw	r6,8(sp)
 20031dc:	d9c00315 	stw	r7,12(sp)
 20031e0:	008080b4 	movhi	r2,514
 20031e4:	10b12104 	addi	r2,r2,-15228
 20031e8:	200d883a 	mov	r6,r4
 20031ec:	11000017 	ldw	r4,0(r2)
 20031f0:	d9c00104 	addi	r7,sp,4
 20031f4:	21400117 	ldw	r5,4(r4)
 20031f8:	20092b00 	call	20092b0 <_vfscanf_r>
 20031fc:	dfc00017 	ldw	ra,0(sp)
 2003200:	dec00404 	addi	sp,sp,16
 2003204:	f800283a 	ret

02003208 <_scanf_r>:
 2003208:	defffd04 	addi	sp,sp,-12
 200320c:	2805883a 	mov	r2,r5
 2003210:	dfc00015 	stw	ra,0(sp)
 2003214:	d9800115 	stw	r6,4(sp)
 2003218:	d9c00215 	stw	r7,8(sp)
 200321c:	21400117 	ldw	r5,4(r4)
 2003220:	d9c00104 	addi	r7,sp,4
 2003224:	100d883a 	mov	r6,r2
 2003228:	20092b00 	call	20092b0 <_vfscanf_r>
 200322c:	dfc00017 	ldw	ra,0(sp)
 2003230:	dec00304 	addi	sp,sp,12
 2003234:	f800283a 	ret

02003238 <_snprintf_r>:
 2003238:	30003116 	blt	r6,zero,2003300 <_snprintf_r+0xc8>
 200323c:	deffe404 	addi	sp,sp,-112
 2003240:	00c08204 	movi	r3,520
 2003244:	dc001a15 	stw	r16,104(sp)
 2003248:	3005883a 	mov	r2,r6
 200324c:	dfc01b15 	stw	ra,108(sp)
 2003250:	d8c0030d 	sth	r3,12(sp)
 2003254:	d9400015 	stw	r5,0(sp)
 2003258:	d9400415 	stw	r5,16(sp)
 200325c:	380d883a 	mov	r6,r7
 2003260:	2021883a 	mov	r16,r4
 2003264:	10001026 	beq	r2,zero,20032a8 <_snprintf_r+0x70>
 2003268:	10bfffc4 	addi	r2,r2,-1
 200326c:	d8800215 	stw	r2,8(sp)
 2003270:	d8800515 	stw	r2,20(sp)
 2003274:	d9c01c04 	addi	r7,sp,112
 2003278:	00bfffc4 	movi	r2,-1
 200327c:	d80b883a 	mov	r5,sp
 2003280:	d880038d 	sth	r2,14(sp)
 2003284:	20035c80 	call	20035c8 <___svfprintf_internal_r>
 2003288:	00ffffc4 	movi	r3,-1
 200328c:	10c01316 	blt	r2,r3,20032dc <_snprintf_r+0xa4>
 2003290:	d8c00017 	ldw	r3,0(sp)
 2003294:	18000005 	stb	zero,0(r3)
 2003298:	dfc01b17 	ldw	ra,108(sp)
 200329c:	dc001a17 	ldw	r16,104(sp)
 20032a0:	dec01c04 	addi	sp,sp,112
 20032a4:	f800283a 	ret
 20032a8:	00bfffc4 	movi	r2,-1
 20032ac:	d9c01c04 	addi	r7,sp,112
 20032b0:	d80b883a 	mov	r5,sp
 20032b4:	d8000215 	stw	zero,8(sp)
 20032b8:	d8000515 	stw	zero,20(sp)
 20032bc:	d880038d 	sth	r2,14(sp)
 20032c0:	20035c80 	call	20035c8 <___svfprintf_internal_r>
 20032c4:	00ffffc4 	movi	r3,-1
 20032c8:	10c00716 	blt	r2,r3,20032e8 <_snprintf_r+0xb0>
 20032cc:	dfc01b17 	ldw	ra,108(sp)
 20032d0:	dc001a17 	ldw	r16,104(sp)
 20032d4:	dec01c04 	addi	sp,sp,112
 20032d8:	f800283a 	ret
 20032dc:	00c022c4 	movi	r3,139
 20032e0:	80c00015 	stw	r3,0(r16)
 20032e4:	003fea06 	br	2003290 <__alt_mem_shared_ocm+0xfe002290>
 20032e8:	00c022c4 	movi	r3,139
 20032ec:	80c00015 	stw	r3,0(r16)
 20032f0:	dfc01b17 	ldw	ra,108(sp)
 20032f4:	dc001a17 	ldw	r16,104(sp)
 20032f8:	dec01c04 	addi	sp,sp,112
 20032fc:	f800283a 	ret
 2003300:	008022c4 	movi	r2,139
 2003304:	20800015 	stw	r2,0(r4)
 2003308:	00bfffc4 	movi	r2,-1
 200330c:	f800283a 	ret

02003310 <snprintf>:
 2003310:	deffe304 	addi	sp,sp,-116
 2003314:	dfc01b15 	stw	ra,108(sp)
 2003318:	dc001a15 	stw	r16,104(sp)
 200331c:	d9c01c15 	stw	r7,112(sp)
 2003320:	008080b4 	movhi	r2,514
 2003324:	10b12104 	addi	r2,r2,-15228
 2003328:	14000017 	ldw	r16,0(r2)
 200332c:	28002d16 	blt	r5,zero,20033e4 <snprintf+0xd4>
 2003330:	00808204 	movi	r2,520
 2003334:	d880030d 	sth	r2,12(sp)
 2003338:	d9000015 	stw	r4,0(sp)
 200333c:	d9000415 	stw	r4,16(sp)
 2003340:	28001126 	beq	r5,zero,2003388 <snprintf+0x78>
 2003344:	28bfffc4 	addi	r2,r5,-1
 2003348:	d8800215 	stw	r2,8(sp)
 200334c:	d8800515 	stw	r2,20(sp)
 2003350:	d9c01c04 	addi	r7,sp,112
 2003354:	00bfffc4 	movi	r2,-1
 2003358:	d80b883a 	mov	r5,sp
 200335c:	8009883a 	mov	r4,r16
 2003360:	d880038d 	sth	r2,14(sp)
 2003364:	20035c80 	call	20035c8 <___svfprintf_internal_r>
 2003368:	00ffffc4 	movi	r3,-1
 200336c:	10c01416 	blt	r2,r3,20033c0 <snprintf+0xb0>
 2003370:	d8c00017 	ldw	r3,0(sp)
 2003374:	18000005 	stb	zero,0(r3)
 2003378:	dfc01b17 	ldw	ra,108(sp)
 200337c:	dc001a17 	ldw	r16,104(sp)
 2003380:	dec01d04 	addi	sp,sp,116
 2003384:	f800283a 	ret
 2003388:	00bfffc4 	movi	r2,-1
 200338c:	d9c01c04 	addi	r7,sp,112
 2003390:	d80b883a 	mov	r5,sp
 2003394:	8009883a 	mov	r4,r16
 2003398:	d8000215 	stw	zero,8(sp)
 200339c:	d8000515 	stw	zero,20(sp)
 20033a0:	d880038d 	sth	r2,14(sp)
 20033a4:	20035c80 	call	20035c8 <___svfprintf_internal_r>
 20033a8:	00ffffc4 	movi	r3,-1
 20033ac:	10c00716 	blt	r2,r3,20033cc <snprintf+0xbc>
 20033b0:	dfc01b17 	ldw	ra,108(sp)
 20033b4:	dc001a17 	ldw	r16,104(sp)
 20033b8:	dec01d04 	addi	sp,sp,116
 20033bc:	f800283a 	ret
 20033c0:	00c022c4 	movi	r3,139
 20033c4:	80c00015 	stw	r3,0(r16)
 20033c8:	003fe906 	br	2003370 <__alt_mem_shared_ocm+0xfe002370>
 20033cc:	00c022c4 	movi	r3,139
 20033d0:	80c00015 	stw	r3,0(r16)
 20033d4:	dfc01b17 	ldw	ra,108(sp)
 20033d8:	dc001a17 	ldw	r16,104(sp)
 20033dc:	dec01d04 	addi	sp,sp,116
 20033e0:	f800283a 	ret
 20033e4:	008022c4 	movi	r2,139
 20033e8:	80800015 	stw	r2,0(r16)
 20033ec:	00bfffc4 	movi	r2,-1
 20033f0:	003fef06 	br	20033b0 <__alt_mem_shared_ocm+0xfe0023b0>

020033f4 <__sread>:
 20033f4:	defffe04 	addi	sp,sp,-8
 20033f8:	dc000015 	stw	r16,0(sp)
 20033fc:	2821883a 	mov	r16,r5
 2003400:	2940038f 	ldh	r5,14(r5)
 2003404:	dfc00115 	stw	ra,4(sp)
 2003408:	200c9140 	call	200c914 <_read_r>
 200340c:	10000716 	blt	r2,zero,200342c <__sread+0x38>
 2003410:	80c01417 	ldw	r3,80(r16)
 2003414:	1887883a 	add	r3,r3,r2
 2003418:	80c01415 	stw	r3,80(r16)
 200341c:	dfc00117 	ldw	ra,4(sp)
 2003420:	dc000017 	ldw	r16,0(sp)
 2003424:	dec00204 	addi	sp,sp,8
 2003428:	f800283a 	ret
 200342c:	80c0030b 	ldhu	r3,12(r16)
 2003430:	18fbffcc 	andi	r3,r3,61439
 2003434:	80c0030d 	sth	r3,12(r16)
 2003438:	dfc00117 	ldw	ra,4(sp)
 200343c:	dc000017 	ldw	r16,0(sp)
 2003440:	dec00204 	addi	sp,sp,8
 2003444:	f800283a 	ret

02003448 <__seofread>:
 2003448:	0005883a 	mov	r2,zero
 200344c:	f800283a 	ret

02003450 <__swrite>:
 2003450:	2880030b 	ldhu	r2,12(r5)
 2003454:	defffb04 	addi	sp,sp,-20
 2003458:	dcc00315 	stw	r19,12(sp)
 200345c:	dc800215 	stw	r18,8(sp)
 2003460:	dc400115 	stw	r17,4(sp)
 2003464:	dc000015 	stw	r16,0(sp)
 2003468:	dfc00415 	stw	ra,16(sp)
 200346c:	10c0400c 	andi	r3,r2,256
 2003470:	2821883a 	mov	r16,r5
 2003474:	2023883a 	mov	r17,r4
 2003478:	3025883a 	mov	r18,r6
 200347c:	3827883a 	mov	r19,r7
 2003480:	18000526 	beq	r3,zero,2003498 <__swrite+0x48>
 2003484:	2940038f 	ldh	r5,14(r5)
 2003488:	01c00084 	movi	r7,2
 200348c:	000d883a 	mov	r6,zero
 2003490:	200b4540 	call	200b454 <_lseek_r>
 2003494:	8080030b 	ldhu	r2,12(r16)
 2003498:	8140038f 	ldh	r5,14(r16)
 200349c:	10bbffcc 	andi	r2,r2,61439
 20034a0:	980f883a 	mov	r7,r19
 20034a4:	900d883a 	mov	r6,r18
 20034a8:	8809883a 	mov	r4,r17
 20034ac:	8080030d 	sth	r2,12(r16)
 20034b0:	dfc00417 	ldw	ra,16(sp)
 20034b4:	dcc00317 	ldw	r19,12(sp)
 20034b8:	dc800217 	ldw	r18,8(sp)
 20034bc:	dc400117 	ldw	r17,4(sp)
 20034c0:	dc000017 	ldw	r16,0(sp)
 20034c4:	dec00504 	addi	sp,sp,20
 20034c8:	20092fc1 	jmpi	20092fc <_write_r>

020034cc <__sseek>:
 20034cc:	defffe04 	addi	sp,sp,-8
 20034d0:	dc000015 	stw	r16,0(sp)
 20034d4:	2821883a 	mov	r16,r5
 20034d8:	2940038f 	ldh	r5,14(r5)
 20034dc:	dfc00115 	stw	ra,4(sp)
 20034e0:	200b4540 	call	200b454 <_lseek_r>
 20034e4:	00ffffc4 	movi	r3,-1
 20034e8:	10c00826 	beq	r2,r3,200350c <__sseek+0x40>
 20034ec:	80c0030b 	ldhu	r3,12(r16)
 20034f0:	80801415 	stw	r2,80(r16)
 20034f4:	18c40014 	ori	r3,r3,4096
 20034f8:	80c0030d 	sth	r3,12(r16)
 20034fc:	dfc00117 	ldw	ra,4(sp)
 2003500:	dc000017 	ldw	r16,0(sp)
 2003504:	dec00204 	addi	sp,sp,8
 2003508:	f800283a 	ret
 200350c:	80c0030b 	ldhu	r3,12(r16)
 2003510:	18fbffcc 	andi	r3,r3,61439
 2003514:	80c0030d 	sth	r3,12(r16)
 2003518:	dfc00117 	ldw	ra,4(sp)
 200351c:	dc000017 	ldw	r16,0(sp)
 2003520:	dec00204 	addi	sp,sp,8
 2003524:	f800283a 	ret

02003528 <__sclose>:
 2003528:	2940038f 	ldh	r5,14(r5)
 200352c:	20094b01 	jmpi	20094b0 <_close_r>

02003530 <strlen>:
 2003530:	208000cc 	andi	r2,r4,3
 2003534:	10002026 	beq	r2,zero,20035b8 <strlen+0x88>
 2003538:	20800007 	ldb	r2,0(r4)
 200353c:	10002026 	beq	r2,zero,20035c0 <strlen+0x90>
 2003540:	2005883a 	mov	r2,r4
 2003544:	00000206 	br	2003550 <strlen+0x20>
 2003548:	10c00007 	ldb	r3,0(r2)
 200354c:	18001826 	beq	r3,zero,20035b0 <strlen+0x80>
 2003550:	10800044 	addi	r2,r2,1
 2003554:	10c000cc 	andi	r3,r2,3
 2003558:	183ffb1e 	bne	r3,zero,2003548 <__alt_mem_shared_ocm+0xfe002548>
 200355c:	10c00017 	ldw	r3,0(r2)
 2003560:	01ffbff4 	movhi	r7,65279
 2003564:	39ffbfc4 	addi	r7,r7,-257
 2003568:	00ca303a 	nor	r5,zero,r3
 200356c:	01a02074 	movhi	r6,32897
 2003570:	19c7883a 	add	r3,r3,r7
 2003574:	31a02004 	addi	r6,r6,-32640
 2003578:	1946703a 	and	r3,r3,r5
 200357c:	1986703a 	and	r3,r3,r6
 2003580:	1800091e 	bne	r3,zero,20035a8 <strlen+0x78>
 2003584:	10800104 	addi	r2,r2,4
 2003588:	10c00017 	ldw	r3,0(r2)
 200358c:	19cb883a 	add	r5,r3,r7
 2003590:	00c6303a 	nor	r3,zero,r3
 2003594:	28c6703a 	and	r3,r5,r3
 2003598:	1986703a 	and	r3,r3,r6
 200359c:	183ff926 	beq	r3,zero,2003584 <__alt_mem_shared_ocm+0xfe002584>
 20035a0:	00000106 	br	20035a8 <strlen+0x78>
 20035a4:	10800044 	addi	r2,r2,1
 20035a8:	10c00007 	ldb	r3,0(r2)
 20035ac:	183ffd1e 	bne	r3,zero,20035a4 <__alt_mem_shared_ocm+0xfe0025a4>
 20035b0:	1105c83a 	sub	r2,r2,r4
 20035b4:	f800283a 	ret
 20035b8:	2005883a 	mov	r2,r4
 20035bc:	003fe706 	br	200355c <__alt_mem_shared_ocm+0xfe00255c>
 20035c0:	0005883a 	mov	r2,zero
 20035c4:	f800283a 	ret

020035c8 <___svfprintf_internal_r>:
 20035c8:	deffb704 	addi	sp,sp,-292
 20035cc:	dfc04815 	stw	ra,288(sp)
 20035d0:	ddc04615 	stw	r23,280(sp)
 20035d4:	d9402c15 	stw	r5,176(sp)
 20035d8:	d9003915 	stw	r4,228(sp)
 20035dc:	302f883a 	mov	r23,r6
 20035e0:	d9c02d15 	stw	r7,180(sp)
 20035e4:	df004715 	stw	fp,284(sp)
 20035e8:	dd804515 	stw	r22,276(sp)
 20035ec:	dd404415 	stw	r21,272(sp)
 20035f0:	dd004315 	stw	r20,268(sp)
 20035f4:	dcc04215 	stw	r19,264(sp)
 20035f8:	dc804115 	stw	r18,260(sp)
 20035fc:	dc404015 	stw	r17,256(sp)
 2003600:	dc003f15 	stw	r16,252(sp)
 2003604:	200b4240 	call	200b424 <_localeconv_r>
 2003608:	10800017 	ldw	r2,0(r2)
 200360c:	1009883a 	mov	r4,r2
 2003610:	d8803415 	stw	r2,208(sp)
 2003614:	20035300 	call	2003530 <strlen>
 2003618:	d8c02c17 	ldw	r3,176(sp)
 200361c:	d8803815 	stw	r2,224(sp)
 2003620:	1880030b 	ldhu	r2,12(r3)
 2003624:	1080200c 	andi	r2,r2,128
 2003628:	10000226 	beq	r2,zero,2003634 <___svfprintf_internal_r+0x6c>
 200362c:	18800417 	ldw	r2,16(r3)
 2003630:	10067f26 	beq	r2,zero,2005030 <___svfprintf_internal_r+0x1a68>
 2003634:	dcc03917 	ldw	r19,228(sp)
 2003638:	d8c00404 	addi	r3,sp,16
 200363c:	054080b4 	movhi	r21,514
 2003640:	d9001e04 	addi	r4,sp,120
 2003644:	ad685284 	addi	r21,r21,-24246
 2003648:	d8c01e15 	stw	r3,120(sp)
 200364c:	d8002015 	stw	zero,128(sp)
 2003650:	d8001f15 	stw	zero,124(sp)
 2003654:	d8003315 	stw	zero,204(sp)
 2003658:	d8003615 	stw	zero,216(sp)
 200365c:	d8003715 	stw	zero,220(sp)
 2003660:	1811883a 	mov	r8,r3
 2003664:	d8003a15 	stw	zero,232(sp)
 2003668:	d8003b15 	stw	zero,236(sp)
 200366c:	d8002f15 	stw	zero,188(sp)
 2003670:	d9002815 	stw	r4,160(sp)
 2003674:	b8800007 	ldb	r2,0(r23)
 2003678:	10026726 	beq	r2,zero,2004018 <___svfprintf_internal_r+0xa50>
 200367c:	00c00944 	movi	r3,37
 2003680:	b821883a 	mov	r16,r23
 2003684:	10c0021e 	bne	r2,r3,2003690 <___svfprintf_internal_r+0xc8>
 2003688:	00001406 	br	20036dc <___svfprintf_internal_r+0x114>
 200368c:	10c00326 	beq	r2,r3,200369c <___svfprintf_internal_r+0xd4>
 2003690:	84000044 	addi	r16,r16,1
 2003694:	80800007 	ldb	r2,0(r16)
 2003698:	103ffc1e 	bne	r2,zero,200368c <__alt_mem_shared_ocm+0xfe00268c>
 200369c:	85e3c83a 	sub	r17,r16,r23
 20036a0:	88000e26 	beq	r17,zero,20036dc <___svfprintf_internal_r+0x114>
 20036a4:	d8c02017 	ldw	r3,128(sp)
 20036a8:	d8801f17 	ldw	r2,124(sp)
 20036ac:	45c00015 	stw	r23,0(r8)
 20036b0:	1c47883a 	add	r3,r3,r17
 20036b4:	10800044 	addi	r2,r2,1
 20036b8:	d8c02015 	stw	r3,128(sp)
 20036bc:	44400115 	stw	r17,4(r8)
 20036c0:	d8801f15 	stw	r2,124(sp)
 20036c4:	00c001c4 	movi	r3,7
 20036c8:	18809716 	blt	r3,r2,2003928 <___svfprintf_internal_r+0x360>
 20036cc:	42000204 	addi	r8,r8,8
 20036d0:	d9402f17 	ldw	r5,188(sp)
 20036d4:	2c4b883a 	add	r5,r5,r17
 20036d8:	d9402f15 	stw	r5,188(sp)
 20036dc:	80800007 	ldb	r2,0(r16)
 20036e0:	10009826 	beq	r2,zero,2003944 <___svfprintf_internal_r+0x37c>
 20036e4:	84400047 	ldb	r17,1(r16)
 20036e8:	00bfffc4 	movi	r2,-1
 20036ec:	85c00044 	addi	r23,r16,1
 20036f0:	d8002785 	stb	zero,158(sp)
 20036f4:	0007883a 	mov	r3,zero
 20036f8:	000f883a 	mov	r7,zero
 20036fc:	d8802915 	stw	r2,164(sp)
 2003700:	d8003115 	stw	zero,196(sp)
 2003704:	0025883a 	mov	r18,zero
 2003708:	01401604 	movi	r5,88
 200370c:	01800244 	movi	r6,9
 2003710:	02800a84 	movi	r10,42
 2003714:	02401b04 	movi	r9,108
 2003718:	bdc00044 	addi	r23,r23,1
 200371c:	88bff804 	addi	r2,r17,-32
 2003720:	2882f036 	bltu	r5,r2,20042e4 <___svfprintf_internal_r+0xd1c>
 2003724:	100490ba 	slli	r2,r2,2
 2003728:	01008034 	movhi	r4,512
 200372c:	210dcf04 	addi	r4,r4,14140
 2003730:	1105883a 	add	r2,r2,r4
 2003734:	10800017 	ldw	r2,0(r2)
 2003738:	1000683a 	jmp	r2
 200373c:	0200424c 	andi	r8,zero,265
 2003740:	020042e4 	muli	r8,zero,267
 2003744:	020042e4 	muli	r8,zero,267
 2003748:	02004240 	call	200424 <__alt_mem_sdram-0x1dffbdc>
 200374c:	020042e4 	muli	r8,zero,267
 2003750:	020042e4 	muli	r8,zero,267
 2003754:	020042e4 	muli	r8,zero,267
 2003758:	020042e4 	muli	r8,zero,267
 200375c:	020042e4 	muli	r8,zero,267
 2003760:	020042e4 	muli	r8,zero,267
 2003764:	020039a0 	cmpeqi	r8,zero,230
 2003768:	0200417c 	xorhi	r8,zero,261
 200376c:	020042e4 	muli	r8,zero,267
 2003770:	020038b0 	cmpltui	r8,zero,226
 2003774:	020039c8 	cmpgei	r8,zero,231
 2003778:	020042e4 	muli	r8,zero,267
 200377c:	02003a3c 	xorhi	r8,zero,232
 2003780:	02003a08 	cmpgei	r8,zero,232
 2003784:	02003a08 	cmpgei	r8,zero,232
 2003788:	02003a08 	cmpgei	r8,zero,232
 200378c:	02003a08 	cmpgei	r8,zero,232
 2003790:	02003a08 	cmpgei	r8,zero,232
 2003794:	02003a08 	cmpgei	r8,zero,232
 2003798:	02003a08 	cmpgei	r8,zero,232
 200379c:	02003a08 	cmpgei	r8,zero,232
 20037a0:	02003a08 	cmpgei	r8,zero,232
 20037a4:	020042e4 	muli	r8,zero,267
 20037a8:	020042e4 	muli	r8,zero,267
 20037ac:	020042e4 	muli	r8,zero,267
 20037b0:	020042e4 	muli	r8,zero,267
 20037b4:	020042e4 	muli	r8,zero,267
 20037b8:	020042e4 	muli	r8,zero,267
 20037bc:	020042e4 	muli	r8,zero,267
 20037c0:	020042e4 	muli	r8,zero,267
 20037c4:	020042e4 	muli	r8,zero,267
 20037c8:	020042e4 	muli	r8,zero,267
 20037cc:	02003af4 	movhi	r8,235
 20037d0:	02003a48 	cmpgei	r8,zero,233
 20037d4:	020042e4 	muli	r8,zero,267
 20037d8:	02003a48 	cmpgei	r8,zero,233
 20037dc:	020042e4 	muli	r8,zero,267
 20037e0:	020042e4 	muli	r8,zero,267
 20037e4:	020042e4 	muli	r8,zero,267
 20037e8:	020042e4 	muli	r8,zero,267
 20037ec:	02003ae8 	cmpgeui	r8,zero,235
 20037f0:	020042e4 	muli	r8,zero,267
 20037f4:	020042e4 	muli	r8,zero,267
 20037f8:	02003bb0 	cmpltui	r8,zero,238
 20037fc:	020042e4 	muli	r8,zero,267
 2003800:	020042e4 	muli	r8,zero,267
 2003804:	020042e4 	muli	r8,zero,267
 2003808:	020042e4 	muli	r8,zero,267
 200380c:	020042e4 	muli	r8,zero,267
 2003810:	02004020 	cmpeqi	r8,zero,256
 2003814:	020042e4 	muli	r8,zero,267
 2003818:	020042e4 	muli	r8,zero,267
 200381c:	02004080 	call	200408 <__alt_mem_sdram-0x1dffbf8>
 2003820:	020042e4 	muli	r8,zero,267
 2003824:	020042e4 	muli	r8,zero,267
 2003828:	020042e4 	muli	r8,zero,267
 200382c:	020042e4 	muli	r8,zero,267
 2003830:	020042e4 	muli	r8,zero,267
 2003834:	020042e4 	muli	r8,zero,267
 2003838:	020042e4 	muli	r8,zero,267
 200383c:	020042e4 	muli	r8,zero,267
 2003840:	020042e4 	muli	r8,zero,267
 2003844:	020042e4 	muli	r8,zero,267
 2003848:	02004130 	cmpltui	r8,zero,260
 200384c:	0200426c 	andhi	r8,zero,265
 2003850:	02003a48 	cmpgei	r8,zero,233
 2003854:	02003a48 	cmpgei	r8,zero,233
 2003858:	02003a48 	cmpgei	r8,zero,233
 200385c:	020042c0 	call	20042c <__alt_mem_sdram-0x1dffbd4>
 2003860:	0200426c 	andhi	r8,zero,265
 2003864:	020042e4 	muli	r8,zero,267
 2003868:	020042e4 	muli	r8,zero,267
 200386c:	0200427c 	xorhi	r8,zero,265
 2003870:	020042e4 	muli	r8,zero,267
 2003874:	0200428c 	andi	r8,zero,266
 2003878:	0200416c 	andhi	r8,zero,261
 200387c:	020038bc 	xorhi	r8,zero,226
 2003880:	0200418c 	andi	r8,zero,262
 2003884:	020042e4 	muli	r8,zero,267
 2003888:	02004198 	cmpnei	r8,zero,262
 200388c:	020042e4 	muli	r8,zero,267
 2003890:	020041f4 	movhi	r8,263
 2003894:	020042e4 	muli	r8,zero,267
 2003898:	020042e4 	muli	r8,zero,267
 200389c:	02004204 	movi	r8,264
 20038a0:	d9003117 	ldw	r4,196(sp)
 20038a4:	d8802d15 	stw	r2,180(sp)
 20038a8:	0109c83a 	sub	r4,zero,r4
 20038ac:	d9003115 	stw	r4,196(sp)
 20038b0:	94800114 	ori	r18,r18,4
 20038b4:	bc400007 	ldb	r17,0(r23)
 20038b8:	003f9706 	br	2003718 <__alt_mem_shared_ocm+0xfe002718>
 20038bc:	00800c04 	movi	r2,48
 20038c0:	d9002d17 	ldw	r4,180(sp)
 20038c4:	d9402917 	ldw	r5,164(sp)
 20038c8:	d8802705 	stb	r2,156(sp)
 20038cc:	00801e04 	movi	r2,120
 20038d0:	d8802745 	stb	r2,157(sp)
 20038d4:	d8002785 	stb	zero,158(sp)
 20038d8:	20c00104 	addi	r3,r4,4
 20038dc:	25000017 	ldw	r20,0(r4)
 20038e0:	002d883a 	mov	r22,zero
 20038e4:	90800094 	ori	r2,r18,2
 20038e8:	28028616 	blt	r5,zero,2004304 <___svfprintf_internal_r+0xd3c>
 20038ec:	00bfdfc4 	movi	r2,-129
 20038f0:	90a4703a 	and	r18,r18,r2
 20038f4:	d8c02d15 	stw	r3,180(sp)
 20038f8:	94800094 	ori	r18,r18,2
 20038fc:	a002731e 	bne	r20,zero,20042cc <___svfprintf_internal_r+0xd04>
 2003900:	008080b4 	movhi	r2,514
 2003904:	10a84b04 	addi	r2,r2,-24276
 2003908:	d8803a15 	stw	r2,232(sp)
 200390c:	04401e04 	movi	r17,120
 2003910:	d8c02917 	ldw	r3,164(sp)
 2003914:	0039883a 	mov	fp,zero
 2003918:	1801d526 	beq	r3,zero,2004070 <___svfprintf_internal_r+0xaa8>
 200391c:	0029883a 	mov	r20,zero
 2003920:	002d883a 	mov	r22,zero
 2003924:	0001f106 	br	20040ec <___svfprintf_internal_r+0xb24>
 2003928:	d9402c17 	ldw	r5,176(sp)
 200392c:	d9801e04 	addi	r6,sp,120
 2003930:	9809883a 	mov	r4,r19
 2003934:	200f4180 	call	200f418 <__ssprint_r>
 2003938:	1000081e 	bne	r2,zero,200395c <___svfprintf_internal_r+0x394>
 200393c:	da000404 	addi	r8,sp,16
 2003940:	003f6306 	br	20036d0 <__alt_mem_shared_ocm+0xfe0026d0>
 2003944:	d8802017 	ldw	r2,128(sp)
 2003948:	10000426 	beq	r2,zero,200395c <___svfprintf_internal_r+0x394>
 200394c:	d9402c17 	ldw	r5,176(sp)
 2003950:	d9003917 	ldw	r4,228(sp)
 2003954:	d9801e04 	addi	r6,sp,120
 2003958:	200f4180 	call	200f418 <__ssprint_r>
 200395c:	d8802c17 	ldw	r2,176(sp)
 2003960:	10c0030b 	ldhu	r3,12(r2)
 2003964:	d8802f17 	ldw	r2,188(sp)
 2003968:	18c0100c 	andi	r3,r3,64
 200396c:	1805f51e 	bne	r3,zero,2005144 <___svfprintf_internal_r+0x1b7c>
 2003970:	dfc04817 	ldw	ra,288(sp)
 2003974:	df004717 	ldw	fp,284(sp)
 2003978:	ddc04617 	ldw	r23,280(sp)
 200397c:	dd804517 	ldw	r22,276(sp)
 2003980:	dd404417 	ldw	r21,272(sp)
 2003984:	dd004317 	ldw	r20,268(sp)
 2003988:	dcc04217 	ldw	r19,264(sp)
 200398c:	dc804117 	ldw	r18,260(sp)
 2003990:	dc404017 	ldw	r17,256(sp)
 2003994:	dc003f17 	ldw	r16,252(sp)
 2003998:	dec04904 	addi	sp,sp,292
 200399c:	f800283a 	ret
 20039a0:	d8802d17 	ldw	r2,180(sp)
 20039a4:	d9002d17 	ldw	r4,180(sp)
 20039a8:	10800017 	ldw	r2,0(r2)
 20039ac:	d8803115 	stw	r2,196(sp)
 20039b0:	20800104 	addi	r2,r4,4
 20039b4:	d9003117 	ldw	r4,196(sp)
 20039b8:	203fb916 	blt	r4,zero,20038a0 <__alt_mem_shared_ocm+0xfe0028a0>
 20039bc:	d8802d15 	stw	r2,180(sp)
 20039c0:	bc400007 	ldb	r17,0(r23)
 20039c4:	003f5406 	br	2003718 <__alt_mem_shared_ocm+0xfe002718>
 20039c8:	bc400007 	ldb	r17,0(r23)
 20039cc:	bac00044 	addi	r11,r23,1
 20039d0:	8a873926 	beq	r17,r10,20056b8 <___svfprintf_internal_r+0x20f0>
 20039d4:	88bff404 	addi	r2,r17,-48
 20039d8:	0009883a 	mov	r4,zero
 20039dc:	30868836 	bltu	r6,r2,2005400 <___svfprintf_internal_r+0x1e38>
 20039e0:	5c400007 	ldb	r17,0(r11)
 20039e4:	210002a4 	muli	r4,r4,10
 20039e8:	5dc00044 	addi	r23,r11,1
 20039ec:	b817883a 	mov	r11,r23
 20039f0:	2089883a 	add	r4,r4,r2
 20039f4:	88bff404 	addi	r2,r17,-48
 20039f8:	30bff92e 	bgeu	r6,r2,20039e0 <__alt_mem_shared_ocm+0xfe0029e0>
 20039fc:	2005d716 	blt	r4,zero,200515c <___svfprintf_internal_r+0x1b94>
 2003a00:	d9002915 	stw	r4,164(sp)
 2003a04:	003f4506 	br	200371c <__alt_mem_shared_ocm+0xfe00271c>
 2003a08:	b809883a 	mov	r4,r23
 2003a0c:	d8003115 	stw	zero,196(sp)
 2003a10:	88bff404 	addi	r2,r17,-48
 2003a14:	0017883a 	mov	r11,zero
 2003a18:	24400007 	ldb	r17,0(r4)
 2003a1c:	5ac002a4 	muli	r11,r11,10
 2003a20:	bdc00044 	addi	r23,r23,1
 2003a24:	b809883a 	mov	r4,r23
 2003a28:	12d7883a 	add	r11,r2,r11
 2003a2c:	88bff404 	addi	r2,r17,-48
 2003a30:	30bff92e 	bgeu	r6,r2,2003a18 <__alt_mem_shared_ocm+0xfe002a18>
 2003a34:	dac03115 	stw	r11,196(sp)
 2003a38:	003f3806 	br	200371c <__alt_mem_shared_ocm+0xfe00271c>
 2003a3c:	94802014 	ori	r18,r18,128
 2003a40:	bc400007 	ldb	r17,0(r23)
 2003a44:	003f3406 	br	2003718 <__alt_mem_shared_ocm+0xfe002718>
 2003a48:	18c03fcc 	andi	r3,r3,255
 2003a4c:	1807471e 	bne	r3,zero,200576c <___svfprintf_internal_r+0x21a4>
 2003a50:	9080020c 	andi	r2,r18,8
 2003a54:	10047d26 	beq	r2,zero,2004c4c <___svfprintf_internal_r+0x1684>
 2003a58:	d8c02d17 	ldw	r3,180(sp)
 2003a5c:	d9002d17 	ldw	r4,180(sp)
 2003a60:	d9402d17 	ldw	r5,180(sp)
 2003a64:	18c00017 	ldw	r3,0(r3)
 2003a68:	21000117 	ldw	r4,4(r4)
 2003a6c:	29400204 	addi	r5,r5,8
 2003a70:	d8c03615 	stw	r3,216(sp)
 2003a74:	d9003715 	stw	r4,220(sp)
 2003a78:	d9402d15 	stw	r5,180(sp)
 2003a7c:	d9003617 	ldw	r4,216(sp)
 2003a80:	d9403717 	ldw	r5,220(sp)
 2003a84:	da003e15 	stw	r8,248(sp)
 2003a88:	04000044 	movi	r16,1
 2003a8c:	200ced80 	call	200ced8 <__fpclassifyd>
 2003a90:	da003e17 	ldw	r8,248(sp)
 2003a94:	14044b1e 	bne	r2,r16,2004bc4 <___svfprintf_internal_r+0x15fc>
 2003a98:	d9003617 	ldw	r4,216(sp)
 2003a9c:	d9403717 	ldw	r5,220(sp)
 2003aa0:	000d883a 	mov	r6,zero
 2003aa4:	000f883a 	mov	r7,zero
 2003aa8:	20155800 	call	2015580 <__ledf2>
 2003aac:	da003e17 	ldw	r8,248(sp)
 2003ab0:	1005f316 	blt	r2,zero,2005280 <___svfprintf_internal_r+0x1cb8>
 2003ab4:	df002783 	ldbu	fp,158(sp)
 2003ab8:	008011c4 	movi	r2,71
 2003abc:	1445590e 	bge	r2,r17,2005024 <___svfprintf_internal_r+0x1a5c>
 2003ac0:	040080b4 	movhi	r16,514
 2003ac4:	84284304 	addi	r16,r16,-24308
 2003ac8:	00c000c4 	movi	r3,3
 2003acc:	00bfdfc4 	movi	r2,-129
 2003ad0:	d8c02a15 	stw	r3,168(sp)
 2003ad4:	90a4703a 	and	r18,r18,r2
 2003ad8:	d8c02e15 	stw	r3,184(sp)
 2003adc:	d8002915 	stw	zero,164(sp)
 2003ae0:	d8003215 	stw	zero,200(sp)
 2003ae4:	00006606 	br	2003c80 <___svfprintf_internal_r+0x6b8>
 2003ae8:	94800214 	ori	r18,r18,8
 2003aec:	bc400007 	ldb	r17,0(r23)
 2003af0:	003f0906 	br	2003718 <__alt_mem_shared_ocm+0xfe002718>
 2003af4:	18c03fcc 	andi	r3,r3,255
 2003af8:	1807181e 	bne	r3,zero,200575c <___svfprintf_internal_r+0x2194>
 2003afc:	94800414 	ori	r18,r18,16
 2003b00:	9080080c 	andi	r2,r18,32
 2003b04:	10039626 	beq	r2,zero,2004960 <___svfprintf_internal_r+0x1398>
 2003b08:	d9402d17 	ldw	r5,180(sp)
 2003b0c:	28800117 	ldw	r2,4(r5)
 2003b10:	2d000017 	ldw	r20,0(r5)
 2003b14:	29400204 	addi	r5,r5,8
 2003b18:	d9402d15 	stw	r5,180(sp)
 2003b1c:	102d883a 	mov	r22,r2
 2003b20:	10039816 	blt	r2,zero,2004984 <___svfprintf_internal_r+0x13bc>
 2003b24:	d9402917 	ldw	r5,164(sp)
 2003b28:	df002783 	ldbu	fp,158(sp)
 2003b2c:	2803ab16 	blt	r5,zero,20049dc <___svfprintf_internal_r+0x1414>
 2003b30:	00ffdfc4 	movi	r3,-129
 2003b34:	a584b03a 	or	r2,r20,r22
 2003b38:	90e4703a 	and	r18,r18,r3
 2003b3c:	10014a26 	beq	r2,zero,2004068 <___svfprintf_internal_r+0xaa0>
 2003b40:	b0034b26 	beq	r22,zero,2004870 <___svfprintf_internal_r+0x12a8>
 2003b44:	dc402a15 	stw	r17,168(sp)
 2003b48:	dc001e04 	addi	r16,sp,120
 2003b4c:	b023883a 	mov	r17,r22
 2003b50:	402d883a 	mov	r22,r8
 2003b54:	a009883a 	mov	r4,r20
 2003b58:	880b883a 	mov	r5,r17
 2003b5c:	01800284 	movi	r6,10
 2003b60:	000f883a 	mov	r7,zero
 2003b64:	20139a00 	call	20139a0 <__umoddi3>
 2003b68:	10800c04 	addi	r2,r2,48
 2003b6c:	843fffc4 	addi	r16,r16,-1
 2003b70:	a009883a 	mov	r4,r20
 2003b74:	880b883a 	mov	r5,r17
 2003b78:	80800005 	stb	r2,0(r16)
 2003b7c:	01800284 	movi	r6,10
 2003b80:	000f883a 	mov	r7,zero
 2003b84:	20134280 	call	2013428 <__udivdi3>
 2003b88:	1029883a 	mov	r20,r2
 2003b8c:	10c4b03a 	or	r2,r2,r3
 2003b90:	1823883a 	mov	r17,r3
 2003b94:	103fef1e 	bne	r2,zero,2003b54 <__alt_mem_shared_ocm+0xfe002b54>
 2003b98:	d8c02817 	ldw	r3,160(sp)
 2003b9c:	dc402a17 	ldw	r17,168(sp)
 2003ba0:	b011883a 	mov	r8,r22
 2003ba4:	1c07c83a 	sub	r3,r3,r16
 2003ba8:	d8c02e15 	stw	r3,184(sp)
 2003bac:	00002e06 	br	2003c68 <___svfprintf_internal_r+0x6a0>
 2003bb0:	18c03fcc 	andi	r3,r3,255
 2003bb4:	1806e71e 	bne	r3,zero,2005754 <___svfprintf_internal_r+0x218c>
 2003bb8:	94800414 	ori	r18,r18,16
 2003bbc:	9080080c 	andi	r2,r18,32
 2003bc0:	1002d426 	beq	r2,zero,2004714 <___svfprintf_internal_r+0x114c>
 2003bc4:	d9402d17 	ldw	r5,180(sp)
 2003bc8:	d8c02917 	ldw	r3,164(sp)
 2003bcc:	d8002785 	stb	zero,158(sp)
 2003bd0:	28800204 	addi	r2,r5,8
 2003bd4:	2d000017 	ldw	r20,0(r5)
 2003bd8:	2d800117 	ldw	r22,4(r5)
 2003bdc:	18041516 	blt	r3,zero,2004c34 <___svfprintf_internal_r+0x166c>
 2003be0:	013fdfc4 	movi	r4,-129
 2003be4:	a586b03a 	or	r3,r20,r22
 2003be8:	d8802d15 	stw	r2,180(sp)
 2003bec:	9124703a 	and	r18,r18,r4
 2003bf0:	1802d51e 	bne	r3,zero,2004748 <___svfprintf_internal_r+0x1180>
 2003bf4:	d9402917 	ldw	r5,164(sp)
 2003bf8:	0039883a 	mov	fp,zero
 2003bfc:	2806be26 	beq	r5,zero,20056f8 <___svfprintf_internal_r+0x2130>
 2003c00:	0029883a 	mov	r20,zero
 2003c04:	002d883a 	mov	r22,zero
 2003c08:	dc001e04 	addi	r16,sp,120
 2003c0c:	a006d0fa 	srli	r3,r20,3
 2003c10:	b008977a 	slli	r4,r22,29
 2003c14:	b02cd0fa 	srli	r22,r22,3
 2003c18:	a50001cc 	andi	r20,r20,7
 2003c1c:	a0800c04 	addi	r2,r20,48
 2003c20:	843fffc4 	addi	r16,r16,-1
 2003c24:	20e8b03a 	or	r20,r4,r3
 2003c28:	80800005 	stb	r2,0(r16)
 2003c2c:	a586b03a 	or	r3,r20,r22
 2003c30:	183ff61e 	bne	r3,zero,2003c0c <__alt_mem_shared_ocm+0xfe002c0c>
 2003c34:	90c0004c 	andi	r3,r18,1
 2003c38:	18013926 	beq	r3,zero,2004120 <___svfprintf_internal_r+0xb58>
 2003c3c:	10803fcc 	andi	r2,r2,255
 2003c40:	1080201c 	xori	r2,r2,128
 2003c44:	10bfe004 	addi	r2,r2,-128
 2003c48:	00c00c04 	movi	r3,48
 2003c4c:	10c13426 	beq	r2,r3,2004120 <___svfprintf_internal_r+0xb58>
 2003c50:	80ffffc5 	stb	r3,-1(r16)
 2003c54:	d8c02817 	ldw	r3,160(sp)
 2003c58:	80bfffc4 	addi	r2,r16,-1
 2003c5c:	1021883a 	mov	r16,r2
 2003c60:	1887c83a 	sub	r3,r3,r2
 2003c64:	d8c02e15 	stw	r3,184(sp)
 2003c68:	d8802e17 	ldw	r2,184(sp)
 2003c6c:	d9002917 	ldw	r4,164(sp)
 2003c70:	1100010e 	bge	r2,r4,2003c78 <___svfprintf_internal_r+0x6b0>
 2003c74:	2005883a 	mov	r2,r4
 2003c78:	d8802a15 	stw	r2,168(sp)
 2003c7c:	d8003215 	stw	zero,200(sp)
 2003c80:	e7003fcc 	andi	fp,fp,255
 2003c84:	e700201c 	xori	fp,fp,128
 2003c88:	e73fe004 	addi	fp,fp,-128
 2003c8c:	e0000326 	beq	fp,zero,2003c9c <___svfprintf_internal_r+0x6d4>
 2003c90:	d8c02a17 	ldw	r3,168(sp)
 2003c94:	18c00044 	addi	r3,r3,1
 2003c98:	d8c02a15 	stw	r3,168(sp)
 2003c9c:	90c0008c 	andi	r3,r18,2
 2003ca0:	d8c02b15 	stw	r3,172(sp)
 2003ca4:	18000326 	beq	r3,zero,2003cb4 <___svfprintf_internal_r+0x6ec>
 2003ca8:	d8c02a17 	ldw	r3,168(sp)
 2003cac:	18c00084 	addi	r3,r3,2
 2003cb0:	d8c02a15 	stw	r3,168(sp)
 2003cb4:	90c0210c 	andi	r3,r18,132
 2003cb8:	d8c03015 	stw	r3,192(sp)
 2003cbc:	1801a11e 	bne	r3,zero,2004344 <___svfprintf_internal_r+0xd7c>
 2003cc0:	d9003117 	ldw	r4,196(sp)
 2003cc4:	d8c02a17 	ldw	r3,168(sp)
 2003cc8:	20e9c83a 	sub	r20,r4,r3
 2003ccc:	05019d0e 	bge	zero,r20,2004344 <___svfprintf_internal_r+0xd7c>
 2003cd0:	02400404 	movi	r9,16
 2003cd4:	d8c02017 	ldw	r3,128(sp)
 2003cd8:	d8801f17 	ldw	r2,124(sp)
 2003cdc:	4d051b0e 	bge	r9,r20,200514c <___svfprintf_internal_r+0x1b84>
 2003ce0:	014080b4 	movhi	r5,514
 2003ce4:	29685684 	addi	r5,r5,-24230
 2003ce8:	dc403c15 	stw	r17,240(sp)
 2003cec:	d9403515 	stw	r5,212(sp)
 2003cf0:	a023883a 	mov	r17,r20
 2003cf4:	482d883a 	mov	r22,r9
 2003cf8:	9029883a 	mov	r20,r18
 2003cfc:	070001c4 	movi	fp,7
 2003d00:	8025883a 	mov	r18,r16
 2003d04:	dc002c17 	ldw	r16,176(sp)
 2003d08:	00000306 	br	2003d18 <___svfprintf_internal_r+0x750>
 2003d0c:	8c7ffc04 	addi	r17,r17,-16
 2003d10:	42000204 	addi	r8,r8,8
 2003d14:	b440130e 	bge	r22,r17,2003d64 <___svfprintf_internal_r+0x79c>
 2003d18:	010080b4 	movhi	r4,514
 2003d1c:	18c00404 	addi	r3,r3,16
 2003d20:	10800044 	addi	r2,r2,1
 2003d24:	21285684 	addi	r4,r4,-24230
 2003d28:	41000015 	stw	r4,0(r8)
 2003d2c:	45800115 	stw	r22,4(r8)
 2003d30:	d8c02015 	stw	r3,128(sp)
 2003d34:	d8801f15 	stw	r2,124(sp)
 2003d38:	e0bff40e 	bge	fp,r2,2003d0c <__alt_mem_shared_ocm+0xfe002d0c>
 2003d3c:	d9801e04 	addi	r6,sp,120
 2003d40:	800b883a 	mov	r5,r16
 2003d44:	9809883a 	mov	r4,r19
 2003d48:	200f4180 	call	200f418 <__ssprint_r>
 2003d4c:	103f031e 	bne	r2,zero,200395c <__alt_mem_shared_ocm+0xfe00295c>
 2003d50:	8c7ffc04 	addi	r17,r17,-16
 2003d54:	d8c02017 	ldw	r3,128(sp)
 2003d58:	d8801f17 	ldw	r2,124(sp)
 2003d5c:	da000404 	addi	r8,sp,16
 2003d60:	b47fed16 	blt	r22,r17,2003d18 <__alt_mem_shared_ocm+0xfe002d18>
 2003d64:	9021883a 	mov	r16,r18
 2003d68:	a025883a 	mov	r18,r20
 2003d6c:	8829883a 	mov	r20,r17
 2003d70:	dc403c17 	ldw	r17,240(sp)
 2003d74:	d9403517 	ldw	r5,212(sp)
 2003d78:	a0c7883a 	add	r3,r20,r3
 2003d7c:	10800044 	addi	r2,r2,1
 2003d80:	41400015 	stw	r5,0(r8)
 2003d84:	45000115 	stw	r20,4(r8)
 2003d88:	d8c02015 	stw	r3,128(sp)
 2003d8c:	d8801f15 	stw	r2,124(sp)
 2003d90:	010001c4 	movi	r4,7
 2003d94:	20829f16 	blt	r4,r2,2004814 <___svfprintf_internal_r+0x124c>
 2003d98:	df002787 	ldb	fp,158(sp)
 2003d9c:	42000204 	addi	r8,r8,8
 2003da0:	e0000c26 	beq	fp,zero,2003dd4 <___svfprintf_internal_r+0x80c>
 2003da4:	d8801f17 	ldw	r2,124(sp)
 2003da8:	d9002784 	addi	r4,sp,158
 2003dac:	18c00044 	addi	r3,r3,1
 2003db0:	10800044 	addi	r2,r2,1
 2003db4:	41000015 	stw	r4,0(r8)
 2003db8:	01000044 	movi	r4,1
 2003dbc:	41000115 	stw	r4,4(r8)
 2003dc0:	d8c02015 	stw	r3,128(sp)
 2003dc4:	d8801f15 	stw	r2,124(sp)
 2003dc8:	010001c4 	movi	r4,7
 2003dcc:	20823816 	blt	r4,r2,20046b0 <___svfprintf_internal_r+0x10e8>
 2003dd0:	42000204 	addi	r8,r8,8
 2003dd4:	d8802b17 	ldw	r2,172(sp)
 2003dd8:	10000c26 	beq	r2,zero,2003e0c <___svfprintf_internal_r+0x844>
 2003ddc:	d8801f17 	ldw	r2,124(sp)
 2003de0:	d9002704 	addi	r4,sp,156
 2003de4:	18c00084 	addi	r3,r3,2
 2003de8:	10800044 	addi	r2,r2,1
 2003dec:	41000015 	stw	r4,0(r8)
 2003df0:	01000084 	movi	r4,2
 2003df4:	41000115 	stw	r4,4(r8)
 2003df8:	d8c02015 	stw	r3,128(sp)
 2003dfc:	d8801f15 	stw	r2,124(sp)
 2003e00:	010001c4 	movi	r4,7
 2003e04:	20823216 	blt	r4,r2,20046d0 <___svfprintf_internal_r+0x1108>
 2003e08:	42000204 	addi	r8,r8,8
 2003e0c:	d9003017 	ldw	r4,192(sp)
 2003e10:	00802004 	movi	r2,128
 2003e14:	20819726 	beq	r4,r2,2004474 <___svfprintf_internal_r+0xeac>
 2003e18:	d9402917 	ldw	r5,164(sp)
 2003e1c:	d8802e17 	ldw	r2,184(sp)
 2003e20:	28adc83a 	sub	r22,r5,r2
 2003e24:	05802f0e 	bge	zero,r22,2003ee4 <___svfprintf_internal_r+0x91c>
 2003e28:	07000404 	movi	fp,16
 2003e2c:	d8801f17 	ldw	r2,124(sp)
 2003e30:	e583c00e 	bge	fp,r22,2004d34 <___svfprintf_internal_r+0x176c>
 2003e34:	014080b4 	movhi	r5,514
 2003e38:	29685284 	addi	r5,r5,-24246
 2003e3c:	dc402915 	stw	r17,164(sp)
 2003e40:	d9402b15 	stw	r5,172(sp)
 2003e44:	b023883a 	mov	r17,r22
 2003e48:	050001c4 	movi	r20,7
 2003e4c:	902d883a 	mov	r22,r18
 2003e50:	8025883a 	mov	r18,r16
 2003e54:	dc002c17 	ldw	r16,176(sp)
 2003e58:	00000306 	br	2003e68 <___svfprintf_internal_r+0x8a0>
 2003e5c:	8c7ffc04 	addi	r17,r17,-16
 2003e60:	42000204 	addi	r8,r8,8
 2003e64:	e440110e 	bge	fp,r17,2003eac <___svfprintf_internal_r+0x8e4>
 2003e68:	18c00404 	addi	r3,r3,16
 2003e6c:	10800044 	addi	r2,r2,1
 2003e70:	45400015 	stw	r21,0(r8)
 2003e74:	47000115 	stw	fp,4(r8)
 2003e78:	d8c02015 	stw	r3,128(sp)
 2003e7c:	d8801f15 	stw	r2,124(sp)
 2003e80:	a0bff60e 	bge	r20,r2,2003e5c <__alt_mem_shared_ocm+0xfe002e5c>
 2003e84:	d9801e04 	addi	r6,sp,120
 2003e88:	800b883a 	mov	r5,r16
 2003e8c:	9809883a 	mov	r4,r19
 2003e90:	200f4180 	call	200f418 <__ssprint_r>
 2003e94:	103eb11e 	bne	r2,zero,200395c <__alt_mem_shared_ocm+0xfe00295c>
 2003e98:	8c7ffc04 	addi	r17,r17,-16
 2003e9c:	d8c02017 	ldw	r3,128(sp)
 2003ea0:	d8801f17 	ldw	r2,124(sp)
 2003ea4:	da000404 	addi	r8,sp,16
 2003ea8:	e47fef16 	blt	fp,r17,2003e68 <__alt_mem_shared_ocm+0xfe002e68>
 2003eac:	9021883a 	mov	r16,r18
 2003eb0:	b025883a 	mov	r18,r22
 2003eb4:	882d883a 	mov	r22,r17
 2003eb8:	dc402917 	ldw	r17,164(sp)
 2003ebc:	d9002b17 	ldw	r4,172(sp)
 2003ec0:	1d87883a 	add	r3,r3,r22
 2003ec4:	10800044 	addi	r2,r2,1
 2003ec8:	41000015 	stw	r4,0(r8)
 2003ecc:	45800115 	stw	r22,4(r8)
 2003ed0:	d8c02015 	stw	r3,128(sp)
 2003ed4:	d8801f15 	stw	r2,124(sp)
 2003ed8:	010001c4 	movi	r4,7
 2003edc:	2081ec16 	blt	r4,r2,2004690 <___svfprintf_internal_r+0x10c8>
 2003ee0:	42000204 	addi	r8,r8,8
 2003ee4:	9080400c 	andi	r2,r18,256
 2003ee8:	1001181e 	bne	r2,zero,200434c <___svfprintf_internal_r+0xd84>
 2003eec:	d9402e17 	ldw	r5,184(sp)
 2003ef0:	d8801f17 	ldw	r2,124(sp)
 2003ef4:	44000015 	stw	r16,0(r8)
 2003ef8:	1947883a 	add	r3,r3,r5
 2003efc:	10800044 	addi	r2,r2,1
 2003f00:	41400115 	stw	r5,4(r8)
 2003f04:	d8c02015 	stw	r3,128(sp)
 2003f08:	d8801f15 	stw	r2,124(sp)
 2003f0c:	010001c4 	movi	r4,7
 2003f10:	2081d116 	blt	r4,r2,2004658 <___svfprintf_internal_r+0x1090>
 2003f14:	42000204 	addi	r8,r8,8
 2003f18:	9480010c 	andi	r18,r18,4
 2003f1c:	90003226 	beq	r18,zero,2003fe8 <___svfprintf_internal_r+0xa20>
 2003f20:	d9403117 	ldw	r5,196(sp)
 2003f24:	d8802a17 	ldw	r2,168(sp)
 2003f28:	28a1c83a 	sub	r16,r5,r2
 2003f2c:	04002e0e 	bge	zero,r16,2003fe8 <___svfprintf_internal_r+0xa20>
 2003f30:	04400404 	movi	r17,16
 2003f34:	d8801f17 	ldw	r2,124(sp)
 2003f38:	8c04b90e 	bge	r17,r16,2005220 <___svfprintf_internal_r+0x1c58>
 2003f3c:	014080b4 	movhi	r5,514
 2003f40:	29685684 	addi	r5,r5,-24230
 2003f44:	d9403515 	stw	r5,212(sp)
 2003f48:	048001c4 	movi	r18,7
 2003f4c:	dd002c17 	ldw	r20,176(sp)
 2003f50:	00000306 	br	2003f60 <___svfprintf_internal_r+0x998>
 2003f54:	843ffc04 	addi	r16,r16,-16
 2003f58:	42000204 	addi	r8,r8,8
 2003f5c:	8c00130e 	bge	r17,r16,2003fac <___svfprintf_internal_r+0x9e4>
 2003f60:	010080b4 	movhi	r4,514
 2003f64:	18c00404 	addi	r3,r3,16
 2003f68:	10800044 	addi	r2,r2,1
 2003f6c:	21285684 	addi	r4,r4,-24230
 2003f70:	41000015 	stw	r4,0(r8)
 2003f74:	44400115 	stw	r17,4(r8)
 2003f78:	d8c02015 	stw	r3,128(sp)
 2003f7c:	d8801f15 	stw	r2,124(sp)
 2003f80:	90bff40e 	bge	r18,r2,2003f54 <__alt_mem_shared_ocm+0xfe002f54>
 2003f84:	d9801e04 	addi	r6,sp,120
 2003f88:	a00b883a 	mov	r5,r20
 2003f8c:	9809883a 	mov	r4,r19
 2003f90:	200f4180 	call	200f418 <__ssprint_r>
 2003f94:	103e711e 	bne	r2,zero,200395c <__alt_mem_shared_ocm+0xfe00295c>
 2003f98:	843ffc04 	addi	r16,r16,-16
 2003f9c:	d8c02017 	ldw	r3,128(sp)
 2003fa0:	d8801f17 	ldw	r2,124(sp)
 2003fa4:	da000404 	addi	r8,sp,16
 2003fa8:	8c3fed16 	blt	r17,r16,2003f60 <__alt_mem_shared_ocm+0xfe002f60>
 2003fac:	d9403517 	ldw	r5,212(sp)
 2003fb0:	1c07883a 	add	r3,r3,r16
 2003fb4:	10800044 	addi	r2,r2,1
 2003fb8:	41400015 	stw	r5,0(r8)
 2003fbc:	44000115 	stw	r16,4(r8)
 2003fc0:	d8c02015 	stw	r3,128(sp)
 2003fc4:	d8801f15 	stw	r2,124(sp)
 2003fc8:	010001c4 	movi	r4,7
 2003fcc:	2080060e 	bge	r4,r2,2003fe8 <___svfprintf_internal_r+0xa20>
 2003fd0:	d9402c17 	ldw	r5,176(sp)
 2003fd4:	d9801e04 	addi	r6,sp,120
 2003fd8:	9809883a 	mov	r4,r19
 2003fdc:	200f4180 	call	200f418 <__ssprint_r>
 2003fe0:	103e5e1e 	bne	r2,zero,200395c <__alt_mem_shared_ocm+0xfe00295c>
 2003fe4:	d8c02017 	ldw	r3,128(sp)
 2003fe8:	d8803117 	ldw	r2,196(sp)
 2003fec:	d9002a17 	ldw	r4,168(sp)
 2003ff0:	1100010e 	bge	r2,r4,2003ff8 <___svfprintf_internal_r+0xa30>
 2003ff4:	2005883a 	mov	r2,r4
 2003ff8:	d9402f17 	ldw	r5,188(sp)
 2003ffc:	288b883a 	add	r5,r5,r2
 2004000:	d9402f15 	stw	r5,188(sp)
 2004004:	18019c1e 	bne	r3,zero,2004678 <___svfprintf_internal_r+0x10b0>
 2004008:	b8800007 	ldb	r2,0(r23)
 200400c:	d8001f15 	stw	zero,124(sp)
 2004010:	da000404 	addi	r8,sp,16
 2004014:	103d991e 	bne	r2,zero,200367c <__alt_mem_shared_ocm+0xfe00267c>
 2004018:	b821883a 	mov	r16,r23
 200401c:	003daf06 	br	20036dc <__alt_mem_shared_ocm+0xfe0026dc>
 2004020:	18c03fcc 	andi	r3,r3,255
 2004024:	1805c71e 	bne	r3,zero,2005744 <___svfprintf_internal_r+0x217c>
 2004028:	94800414 	ori	r18,r18,16
 200402c:	9080080c 	andi	r2,r18,32
 2004030:	10020126 	beq	r2,zero,2004838 <___svfprintf_internal_r+0x1270>
 2004034:	d8802d17 	ldw	r2,180(sp)
 2004038:	d9002917 	ldw	r4,164(sp)
 200403c:	d8002785 	stb	zero,158(sp)
 2004040:	10c00204 	addi	r3,r2,8
 2004044:	15000017 	ldw	r20,0(r2)
 2004048:	15800117 	ldw	r22,4(r2)
 200404c:	20038e16 	blt	r4,zero,2004e88 <___svfprintf_internal_r+0x18c0>
 2004050:	013fdfc4 	movi	r4,-129
 2004054:	a584b03a 	or	r2,r20,r22
 2004058:	d8c02d15 	stw	r3,180(sp)
 200405c:	9124703a 	and	r18,r18,r4
 2004060:	0039883a 	mov	fp,zero
 2004064:	103eb61e 	bne	r2,zero,2003b40 <__alt_mem_shared_ocm+0xfe002b40>
 2004068:	d8802917 	ldw	r2,164(sp)
 200406c:	1002c81e 	bne	r2,zero,2004b90 <___svfprintf_internal_r+0x15c8>
 2004070:	d8002915 	stw	zero,164(sp)
 2004074:	d8002e15 	stw	zero,184(sp)
 2004078:	dc001e04 	addi	r16,sp,120
 200407c:	003efa06 	br	2003c68 <__alt_mem_shared_ocm+0xfe002c68>
 2004080:	18c03fcc 	andi	r3,r3,255
 2004084:	1805ad1e 	bne	r3,zero,200573c <___svfprintf_internal_r+0x2174>
 2004088:	014080b4 	movhi	r5,514
 200408c:	29684604 	addi	r5,r5,-24296
 2004090:	d9403a15 	stw	r5,232(sp)
 2004094:	9080080c 	andi	r2,r18,32
 2004098:	10006126 	beq	r2,zero,2004220 <___svfprintf_internal_r+0xc58>
 200409c:	d8802d17 	ldw	r2,180(sp)
 20040a0:	15000017 	ldw	r20,0(r2)
 20040a4:	15800117 	ldw	r22,4(r2)
 20040a8:	10800204 	addi	r2,r2,8
 20040ac:	d8802d15 	stw	r2,180(sp)
 20040b0:	9080004c 	andi	r2,r18,1
 20040b4:	10018e26 	beq	r2,zero,20046f0 <___svfprintf_internal_r+0x1128>
 20040b8:	a584b03a 	or	r2,r20,r22
 20040bc:	10030926 	beq	r2,zero,2004ce4 <___svfprintf_internal_r+0x171c>
 20040c0:	d8c02917 	ldw	r3,164(sp)
 20040c4:	00800c04 	movi	r2,48
 20040c8:	d8802705 	stb	r2,156(sp)
 20040cc:	dc402745 	stb	r17,157(sp)
 20040d0:	d8002785 	stb	zero,158(sp)
 20040d4:	90800094 	ori	r2,r18,2
 20040d8:	18048716 	blt	r3,zero,20052f8 <___svfprintf_internal_r+0x1d30>
 20040dc:	00bfdfc4 	movi	r2,-129
 20040e0:	90a4703a 	and	r18,r18,r2
 20040e4:	94800094 	ori	r18,r18,2
 20040e8:	0039883a 	mov	fp,zero
 20040ec:	d9003a17 	ldw	r4,232(sp)
 20040f0:	dc001e04 	addi	r16,sp,120
 20040f4:	a08003cc 	andi	r2,r20,15
 20040f8:	b006973a 	slli	r3,r22,28
 20040fc:	2085883a 	add	r2,r4,r2
 2004100:	a028d13a 	srli	r20,r20,4
 2004104:	10800003 	ldbu	r2,0(r2)
 2004108:	b02cd13a 	srli	r22,r22,4
 200410c:	843fffc4 	addi	r16,r16,-1
 2004110:	1d28b03a 	or	r20,r3,r20
 2004114:	80800005 	stb	r2,0(r16)
 2004118:	a584b03a 	or	r2,r20,r22
 200411c:	103ff51e 	bne	r2,zero,20040f4 <__alt_mem_shared_ocm+0xfe0030f4>
 2004120:	d8c02817 	ldw	r3,160(sp)
 2004124:	1c07c83a 	sub	r3,r3,r16
 2004128:	d8c02e15 	stw	r3,184(sp)
 200412c:	003ece06 	br	2003c68 <__alt_mem_shared_ocm+0xfe002c68>
 2004130:	d8c02d17 	ldw	r3,180(sp)
 2004134:	d9002d17 	ldw	r4,180(sp)
 2004138:	d8002785 	stb	zero,158(sp)
 200413c:	18800017 	ldw	r2,0(r3)
 2004140:	21000104 	addi	r4,r4,4
 2004144:	00c00044 	movi	r3,1
 2004148:	d8c02a15 	stw	r3,168(sp)
 200414c:	d8801405 	stb	r2,80(sp)
 2004150:	d9002d15 	stw	r4,180(sp)
 2004154:	d8c02e15 	stw	r3,184(sp)
 2004158:	d8002915 	stw	zero,164(sp)
 200415c:	d8003215 	stw	zero,200(sp)
 2004160:	dc001404 	addi	r16,sp,80
 2004164:	0039883a 	mov	fp,zero
 2004168:	003ecc06 	br	2003c9c <__alt_mem_shared_ocm+0xfe002c9c>
 200416c:	18c03fcc 	andi	r3,r3,255
 2004170:	183e9226 	beq	r3,zero,2003bbc <__alt_mem_shared_ocm+0xfe002bbc>
 2004174:	d9c02785 	stb	r7,158(sp)
 2004178:	003e9006 	br	2003bbc <__alt_mem_shared_ocm+0xfe002bbc>
 200417c:	00c00044 	movi	r3,1
 2004180:	01c00ac4 	movi	r7,43
 2004184:	bc400007 	ldb	r17,0(r23)
 2004188:	003d6306 	br	2003718 <__alt_mem_shared_ocm+0xfe002718>
 200418c:	94800814 	ori	r18,r18,32
 2004190:	bc400007 	ldb	r17,0(r23)
 2004194:	003d6006 	br	2003718 <__alt_mem_shared_ocm+0xfe002718>
 2004198:	d8c02d17 	ldw	r3,180(sp)
 200419c:	d8002785 	stb	zero,158(sp)
 20041a0:	1c000017 	ldw	r16,0(r3)
 20041a4:	1d000104 	addi	r20,r3,4
 20041a8:	80040f26 	beq	r16,zero,20051e8 <___svfprintf_internal_r+0x1c20>
 20041ac:	d9002917 	ldw	r4,164(sp)
 20041b0:	2003dc16 	blt	r4,zero,2005124 <___svfprintf_internal_r+0x1b5c>
 20041b4:	200d883a 	mov	r6,r4
 20041b8:	000b883a 	mov	r5,zero
 20041bc:	8009883a 	mov	r4,r16
 20041c0:	da003e15 	stw	r8,248(sp)
 20041c4:	200b6d80 	call	200b6d8 <memchr>
 20041c8:	da003e17 	ldw	r8,248(sp)
 20041cc:	10045826 	beq	r2,zero,2005330 <___svfprintf_internal_r+0x1d68>
 20041d0:	1405c83a 	sub	r2,r2,r16
 20041d4:	d8802e15 	stw	r2,184(sp)
 20041d8:	1003d816 	blt	r2,zero,200513c <___svfprintf_internal_r+0x1b74>
 20041dc:	df002783 	ldbu	fp,158(sp)
 20041e0:	d8802a15 	stw	r2,168(sp)
 20041e4:	dd002d15 	stw	r20,180(sp)
 20041e8:	d8002915 	stw	zero,164(sp)
 20041ec:	d8003215 	stw	zero,200(sp)
 20041f0:	003ea306 	br	2003c80 <__alt_mem_shared_ocm+0xfe002c80>
 20041f4:	18c03fcc 	andi	r3,r3,255
 20041f8:	183f8c26 	beq	r3,zero,200402c <__alt_mem_shared_ocm+0xfe00302c>
 20041fc:	d9c02785 	stb	r7,158(sp)
 2004200:	003f8a06 	br	200402c <__alt_mem_shared_ocm+0xfe00302c>
 2004204:	18c03fcc 	andi	r3,r3,255
 2004208:	1805631e 	bne	r3,zero,2005798 <___svfprintf_internal_r+0x21d0>
 200420c:	014080b4 	movhi	r5,514
 2004210:	29684b04 	addi	r5,r5,-24276
 2004214:	d9403a15 	stw	r5,232(sp)
 2004218:	9080080c 	andi	r2,r18,32
 200421c:	103f9f1e 	bne	r2,zero,200409c <__alt_mem_shared_ocm+0xfe00309c>
 2004220:	9080040c 	andi	r2,r18,16
 2004224:	10029c26 	beq	r2,zero,2004c98 <___svfprintf_internal_r+0x16d0>
 2004228:	d8c02d17 	ldw	r3,180(sp)
 200422c:	002d883a 	mov	r22,zero
 2004230:	1d000017 	ldw	r20,0(r3)
 2004234:	18c00104 	addi	r3,r3,4
 2004238:	d8c02d15 	stw	r3,180(sp)
 200423c:	003f9c06 	br	20040b0 <__alt_mem_shared_ocm+0xfe0030b0>
 2004240:	94800054 	ori	r18,r18,1
 2004244:	bc400007 	ldb	r17,0(r23)
 2004248:	003d3306 	br	2003718 <__alt_mem_shared_ocm+0xfe002718>
 200424c:	38803fcc 	andi	r2,r7,255
 2004250:	1080201c 	xori	r2,r2,128
 2004254:	10bfe004 	addi	r2,r2,-128
 2004258:	1002971e 	bne	r2,zero,2004cb8 <___svfprintf_internal_r+0x16f0>
 200425c:	00c00044 	movi	r3,1
 2004260:	01c00804 	movi	r7,32
 2004264:	bc400007 	ldb	r17,0(r23)
 2004268:	003d2b06 	br	2003718 <__alt_mem_shared_ocm+0xfe002718>
 200426c:	18c03fcc 	andi	r3,r3,255
 2004270:	183e2326 	beq	r3,zero,2003b00 <__alt_mem_shared_ocm+0xfe002b00>
 2004274:	d9c02785 	stb	r7,158(sp)
 2004278:	003e2106 	br	2003b00 <__alt_mem_shared_ocm+0xfe002b00>
 200427c:	bc400007 	ldb	r17,0(r23)
 2004280:	8a430426 	beq	r17,r9,2004e94 <___svfprintf_internal_r+0x18cc>
 2004284:	94800414 	ori	r18,r18,16
 2004288:	003d2306 	br	2003718 <__alt_mem_shared_ocm+0xfe002718>
 200428c:	18c03fcc 	andi	r3,r3,255
 2004290:	18053f1e 	bne	r3,zero,2005790 <___svfprintf_internal_r+0x21c8>
 2004294:	9080080c 	andi	r2,r18,32
 2004298:	10028926 	beq	r2,zero,2004cc0 <___svfprintf_internal_r+0x16f8>
 200429c:	d9402d17 	ldw	r5,180(sp)
 20042a0:	d9002f17 	ldw	r4,188(sp)
 20042a4:	28800017 	ldw	r2,0(r5)
 20042a8:	2007d7fa 	srai	r3,r4,31
 20042ac:	29400104 	addi	r5,r5,4
 20042b0:	d9402d15 	stw	r5,180(sp)
 20042b4:	11000015 	stw	r4,0(r2)
 20042b8:	10c00115 	stw	r3,4(r2)
 20042bc:	003ced06 	br	2003674 <__alt_mem_shared_ocm+0xfe002674>
 20042c0:	94801014 	ori	r18,r18,64
 20042c4:	bc400007 	ldb	r17,0(r23)
 20042c8:	003d1306 	br	2003718 <__alt_mem_shared_ocm+0xfe002718>
 20042cc:	010080b4 	movhi	r4,514
 20042d0:	21284b04 	addi	r4,r4,-24276
 20042d4:	0039883a 	mov	fp,zero
 20042d8:	d9003a15 	stw	r4,232(sp)
 20042dc:	04401e04 	movi	r17,120
 20042e0:	003f8206 	br	20040ec <__alt_mem_shared_ocm+0xfe0030ec>
 20042e4:	18c03fcc 	andi	r3,r3,255
 20042e8:	1805221e 	bne	r3,zero,2005774 <___svfprintf_internal_r+0x21ac>
 20042ec:	883d9526 	beq	r17,zero,2003944 <__alt_mem_shared_ocm+0xfe002944>
 20042f0:	00c00044 	movi	r3,1
 20042f4:	d8c02a15 	stw	r3,168(sp)
 20042f8:	dc401405 	stb	r17,80(sp)
 20042fc:	d8002785 	stb	zero,158(sp)
 2004300:	003f9406 	br	2004154 <__alt_mem_shared_ocm+0xfe003154>
 2004304:	010080b4 	movhi	r4,514
 2004308:	21284b04 	addi	r4,r4,-24276
 200430c:	d9003a15 	stw	r4,232(sp)
 2004310:	d8c02d15 	stw	r3,180(sp)
 2004314:	1025883a 	mov	r18,r2
 2004318:	04401e04 	movi	r17,120
 200431c:	a584b03a 	or	r2,r20,r22
 2004320:	1000fa1e 	bne	r2,zero,200470c <___svfprintf_internal_r+0x1144>
 2004324:	0039883a 	mov	fp,zero
 2004328:	00800084 	movi	r2,2
 200432c:	10803fcc 	andi	r2,r2,255
 2004330:	00c00044 	movi	r3,1
 2004334:	10c21626 	beq	r2,r3,2004b90 <___svfprintf_internal_r+0x15c8>
 2004338:	00c00084 	movi	r3,2
 200433c:	10fe301e 	bne	r2,r3,2003c00 <__alt_mem_shared_ocm+0xfe002c00>
 2004340:	003d7606 	br	200391c <__alt_mem_shared_ocm+0xfe00291c>
 2004344:	d8c02017 	ldw	r3,128(sp)
 2004348:	003e9506 	br	2003da0 <__alt_mem_shared_ocm+0xfe002da0>
 200434c:	00801944 	movi	r2,101
 2004350:	14407c0e 	bge	r2,r17,2004544 <___svfprintf_internal_r+0xf7c>
 2004354:	d9003617 	ldw	r4,216(sp)
 2004358:	d9403717 	ldw	r5,220(sp)
 200435c:	000d883a 	mov	r6,zero
 2004360:	000f883a 	mov	r7,zero
 2004364:	d8c03d15 	stw	r3,244(sp)
 2004368:	da003e15 	stw	r8,248(sp)
 200436c:	201541c0 	call	201541c <__eqdf2>
 2004370:	d8c03d17 	ldw	r3,244(sp)
 2004374:	da003e17 	ldw	r8,248(sp)
 2004378:	1000f51e 	bne	r2,zero,2004750 <___svfprintf_internal_r+0x1188>
 200437c:	d8801f17 	ldw	r2,124(sp)
 2004380:	010080b4 	movhi	r4,514
 2004384:	21285204 	addi	r4,r4,-24248
 2004388:	18c00044 	addi	r3,r3,1
 200438c:	10800044 	addi	r2,r2,1
 2004390:	41000015 	stw	r4,0(r8)
 2004394:	01000044 	movi	r4,1
 2004398:	41000115 	stw	r4,4(r8)
 200439c:	d8c02015 	stw	r3,128(sp)
 20043a0:	d8801f15 	stw	r2,124(sp)
 20043a4:	010001c4 	movi	r4,7
 20043a8:	20826616 	blt	r4,r2,2004d44 <___svfprintf_internal_r+0x177c>
 20043ac:	42000204 	addi	r8,r8,8
 20043b0:	d8802617 	ldw	r2,152(sp)
 20043b4:	d9403317 	ldw	r5,204(sp)
 20043b8:	11400216 	blt	r2,r5,20043c4 <___svfprintf_internal_r+0xdfc>
 20043bc:	9080004c 	andi	r2,r18,1
 20043c0:	103ed526 	beq	r2,zero,2003f18 <__alt_mem_shared_ocm+0xfe002f18>
 20043c4:	d8803817 	ldw	r2,224(sp)
 20043c8:	d9003417 	ldw	r4,208(sp)
 20043cc:	d9403817 	ldw	r5,224(sp)
 20043d0:	1887883a 	add	r3,r3,r2
 20043d4:	d8801f17 	ldw	r2,124(sp)
 20043d8:	41000015 	stw	r4,0(r8)
 20043dc:	41400115 	stw	r5,4(r8)
 20043e0:	10800044 	addi	r2,r2,1
 20043e4:	d8c02015 	stw	r3,128(sp)
 20043e8:	d8801f15 	stw	r2,124(sp)
 20043ec:	010001c4 	movi	r4,7
 20043f0:	2082af16 	blt	r4,r2,2004eb0 <___svfprintf_internal_r+0x18e8>
 20043f4:	42000204 	addi	r8,r8,8
 20043f8:	d8803317 	ldw	r2,204(sp)
 20043fc:	143fffc4 	addi	r16,r2,-1
 2004400:	043ec50e 	bge	zero,r16,2003f18 <__alt_mem_shared_ocm+0xfe002f18>
 2004404:	04400404 	movi	r17,16
 2004408:	d8801f17 	ldw	r2,124(sp)
 200440c:	8c00860e 	bge	r17,r16,2004628 <___svfprintf_internal_r+0x1060>
 2004410:	014080b4 	movhi	r5,514
 2004414:	29685284 	addi	r5,r5,-24246
 2004418:	d9402b15 	stw	r5,172(sp)
 200441c:	058001c4 	movi	r22,7
 2004420:	dd002c17 	ldw	r20,176(sp)
 2004424:	00000306 	br	2004434 <___svfprintf_internal_r+0xe6c>
 2004428:	42000204 	addi	r8,r8,8
 200442c:	843ffc04 	addi	r16,r16,-16
 2004430:	8c00800e 	bge	r17,r16,2004634 <___svfprintf_internal_r+0x106c>
 2004434:	18c00404 	addi	r3,r3,16
 2004438:	10800044 	addi	r2,r2,1
 200443c:	45400015 	stw	r21,0(r8)
 2004440:	44400115 	stw	r17,4(r8)
 2004444:	d8c02015 	stw	r3,128(sp)
 2004448:	d8801f15 	stw	r2,124(sp)
 200444c:	b0bff60e 	bge	r22,r2,2004428 <__alt_mem_shared_ocm+0xfe003428>
 2004450:	d9801e04 	addi	r6,sp,120
 2004454:	a00b883a 	mov	r5,r20
 2004458:	9809883a 	mov	r4,r19
 200445c:	200f4180 	call	200f418 <__ssprint_r>
 2004460:	103d3e1e 	bne	r2,zero,200395c <__alt_mem_shared_ocm+0xfe00295c>
 2004464:	d8c02017 	ldw	r3,128(sp)
 2004468:	d8801f17 	ldw	r2,124(sp)
 200446c:	da000404 	addi	r8,sp,16
 2004470:	003fee06 	br	200442c <__alt_mem_shared_ocm+0xfe00342c>
 2004474:	d9403117 	ldw	r5,196(sp)
 2004478:	d8802a17 	ldw	r2,168(sp)
 200447c:	28adc83a 	sub	r22,r5,r2
 2004480:	05be650e 	bge	zero,r22,2003e18 <__alt_mem_shared_ocm+0xfe002e18>
 2004484:	07000404 	movi	fp,16
 2004488:	d8801f17 	ldw	r2,124(sp)
 200448c:	e583a20e 	bge	fp,r22,2005318 <___svfprintf_internal_r+0x1d50>
 2004490:	014080b4 	movhi	r5,514
 2004494:	29685284 	addi	r5,r5,-24246
 2004498:	dc403015 	stw	r17,192(sp)
 200449c:	d9402b15 	stw	r5,172(sp)
 20044a0:	b023883a 	mov	r17,r22
 20044a4:	050001c4 	movi	r20,7
 20044a8:	902d883a 	mov	r22,r18
 20044ac:	8025883a 	mov	r18,r16
 20044b0:	dc002c17 	ldw	r16,176(sp)
 20044b4:	00000306 	br	20044c4 <___svfprintf_internal_r+0xefc>
 20044b8:	8c7ffc04 	addi	r17,r17,-16
 20044bc:	42000204 	addi	r8,r8,8
 20044c0:	e440110e 	bge	fp,r17,2004508 <___svfprintf_internal_r+0xf40>
 20044c4:	18c00404 	addi	r3,r3,16
 20044c8:	10800044 	addi	r2,r2,1
 20044cc:	45400015 	stw	r21,0(r8)
 20044d0:	47000115 	stw	fp,4(r8)
 20044d4:	d8c02015 	stw	r3,128(sp)
 20044d8:	d8801f15 	stw	r2,124(sp)
 20044dc:	a0bff60e 	bge	r20,r2,20044b8 <__alt_mem_shared_ocm+0xfe0034b8>
 20044e0:	d9801e04 	addi	r6,sp,120
 20044e4:	800b883a 	mov	r5,r16
 20044e8:	9809883a 	mov	r4,r19
 20044ec:	200f4180 	call	200f418 <__ssprint_r>
 20044f0:	103d1a1e 	bne	r2,zero,200395c <__alt_mem_shared_ocm+0xfe00295c>
 20044f4:	8c7ffc04 	addi	r17,r17,-16
 20044f8:	d8c02017 	ldw	r3,128(sp)
 20044fc:	d8801f17 	ldw	r2,124(sp)
 2004500:	da000404 	addi	r8,sp,16
 2004504:	e47fef16 	blt	fp,r17,20044c4 <__alt_mem_shared_ocm+0xfe0034c4>
 2004508:	9021883a 	mov	r16,r18
 200450c:	b025883a 	mov	r18,r22
 2004510:	882d883a 	mov	r22,r17
 2004514:	dc403017 	ldw	r17,192(sp)
 2004518:	d9002b17 	ldw	r4,172(sp)
 200451c:	1d87883a 	add	r3,r3,r22
 2004520:	10800044 	addi	r2,r2,1
 2004524:	41000015 	stw	r4,0(r8)
 2004528:	45800115 	stw	r22,4(r8)
 200452c:	d8c02015 	stw	r3,128(sp)
 2004530:	d8801f15 	stw	r2,124(sp)
 2004534:	010001c4 	movi	r4,7
 2004538:	20819a16 	blt	r4,r2,2004ba4 <___svfprintf_internal_r+0x15dc>
 200453c:	42000204 	addi	r8,r8,8
 2004540:	003e3506 	br	2003e18 <__alt_mem_shared_ocm+0xfe002e18>
 2004544:	d9403317 	ldw	r5,204(sp)
 2004548:	00800044 	movi	r2,1
 200454c:	18c00044 	addi	r3,r3,1
 2004550:	1141710e 	bge	r2,r5,2004b18 <___svfprintf_internal_r+0x1550>
 2004554:	dc401f17 	ldw	r17,124(sp)
 2004558:	00800044 	movi	r2,1
 200455c:	40800115 	stw	r2,4(r8)
 2004560:	8c400044 	addi	r17,r17,1
 2004564:	44000015 	stw	r16,0(r8)
 2004568:	d8c02015 	stw	r3,128(sp)
 200456c:	dc401f15 	stw	r17,124(sp)
 2004570:	008001c4 	movi	r2,7
 2004574:	14417416 	blt	r2,r17,2004b48 <___svfprintf_internal_r+0x1580>
 2004578:	42000204 	addi	r8,r8,8
 200457c:	d8803817 	ldw	r2,224(sp)
 2004580:	d9003417 	ldw	r4,208(sp)
 2004584:	8c400044 	addi	r17,r17,1
 2004588:	10c7883a 	add	r3,r2,r3
 200458c:	40800115 	stw	r2,4(r8)
 2004590:	41000015 	stw	r4,0(r8)
 2004594:	d8c02015 	stw	r3,128(sp)
 2004598:	dc401f15 	stw	r17,124(sp)
 200459c:	008001c4 	movi	r2,7
 20045a0:	14417216 	blt	r2,r17,2004b6c <___svfprintf_internal_r+0x15a4>
 20045a4:	45800204 	addi	r22,r8,8
 20045a8:	d9003617 	ldw	r4,216(sp)
 20045ac:	d9403717 	ldw	r5,220(sp)
 20045b0:	000d883a 	mov	r6,zero
 20045b4:	000f883a 	mov	r7,zero
 20045b8:	d8c03d15 	stw	r3,244(sp)
 20045bc:	201541c0 	call	201541c <__eqdf2>
 20045c0:	d8c03d17 	ldw	r3,244(sp)
 20045c4:	1000b326 	beq	r2,zero,2004894 <___svfprintf_internal_r+0x12cc>
 20045c8:	d9403317 	ldw	r5,204(sp)
 20045cc:	84000044 	addi	r16,r16,1
 20045d0:	8c400044 	addi	r17,r17,1
 20045d4:	28bfffc4 	addi	r2,r5,-1
 20045d8:	1887883a 	add	r3,r3,r2
 20045dc:	b0800115 	stw	r2,4(r22)
 20045e0:	b4000015 	stw	r16,0(r22)
 20045e4:	d8c02015 	stw	r3,128(sp)
 20045e8:	dc401f15 	stw	r17,124(sp)
 20045ec:	008001c4 	movi	r2,7
 20045f0:	1440d216 	blt	r2,r17,200493c <___svfprintf_internal_r+0x1374>
 20045f4:	b5800204 	addi	r22,r22,8
 20045f8:	d9003b17 	ldw	r4,236(sp)
 20045fc:	df0022c4 	addi	fp,sp,139
 2004600:	8c400044 	addi	r17,r17,1
 2004604:	20c7883a 	add	r3,r4,r3
 2004608:	b7000015 	stw	fp,0(r22)
 200460c:	b1000115 	stw	r4,4(r22)
 2004610:	d8c02015 	stw	r3,128(sp)
 2004614:	dc401f15 	stw	r17,124(sp)
 2004618:	008001c4 	movi	r2,7
 200461c:	14400e16 	blt	r2,r17,2004658 <___svfprintf_internal_r+0x1090>
 2004620:	b2000204 	addi	r8,r22,8
 2004624:	003e3c06 	br	2003f18 <__alt_mem_shared_ocm+0xfe002f18>
 2004628:	010080b4 	movhi	r4,514
 200462c:	21285284 	addi	r4,r4,-24246
 2004630:	d9002b15 	stw	r4,172(sp)
 2004634:	d9002b17 	ldw	r4,172(sp)
 2004638:	1c07883a 	add	r3,r3,r16
 200463c:	44000115 	stw	r16,4(r8)
 2004640:	41000015 	stw	r4,0(r8)
 2004644:	10800044 	addi	r2,r2,1
 2004648:	d8c02015 	stw	r3,128(sp)
 200464c:	d8801f15 	stw	r2,124(sp)
 2004650:	010001c4 	movi	r4,7
 2004654:	20be2f0e 	bge	r4,r2,2003f14 <__alt_mem_shared_ocm+0xfe002f14>
 2004658:	d9402c17 	ldw	r5,176(sp)
 200465c:	d9801e04 	addi	r6,sp,120
 2004660:	9809883a 	mov	r4,r19
 2004664:	200f4180 	call	200f418 <__ssprint_r>
 2004668:	103cbc1e 	bne	r2,zero,200395c <__alt_mem_shared_ocm+0xfe00295c>
 200466c:	d8c02017 	ldw	r3,128(sp)
 2004670:	da000404 	addi	r8,sp,16
 2004674:	003e2806 	br	2003f18 <__alt_mem_shared_ocm+0xfe002f18>
 2004678:	d9402c17 	ldw	r5,176(sp)
 200467c:	d9801e04 	addi	r6,sp,120
 2004680:	9809883a 	mov	r4,r19
 2004684:	200f4180 	call	200f418 <__ssprint_r>
 2004688:	103e5f26 	beq	r2,zero,2004008 <__alt_mem_shared_ocm+0xfe003008>
 200468c:	003cb306 	br	200395c <__alt_mem_shared_ocm+0xfe00295c>
 2004690:	d9402c17 	ldw	r5,176(sp)
 2004694:	d9801e04 	addi	r6,sp,120
 2004698:	9809883a 	mov	r4,r19
 200469c:	200f4180 	call	200f418 <__ssprint_r>
 20046a0:	103cae1e 	bne	r2,zero,200395c <__alt_mem_shared_ocm+0xfe00295c>
 20046a4:	d8c02017 	ldw	r3,128(sp)
 20046a8:	da000404 	addi	r8,sp,16
 20046ac:	003e0d06 	br	2003ee4 <__alt_mem_shared_ocm+0xfe002ee4>
 20046b0:	d9402c17 	ldw	r5,176(sp)
 20046b4:	d9801e04 	addi	r6,sp,120
 20046b8:	9809883a 	mov	r4,r19
 20046bc:	200f4180 	call	200f418 <__ssprint_r>
 20046c0:	103ca61e 	bne	r2,zero,200395c <__alt_mem_shared_ocm+0xfe00295c>
 20046c4:	d8c02017 	ldw	r3,128(sp)
 20046c8:	da000404 	addi	r8,sp,16
 20046cc:	003dc106 	br	2003dd4 <__alt_mem_shared_ocm+0xfe002dd4>
 20046d0:	d9402c17 	ldw	r5,176(sp)
 20046d4:	d9801e04 	addi	r6,sp,120
 20046d8:	9809883a 	mov	r4,r19
 20046dc:	200f4180 	call	200f418 <__ssprint_r>
 20046e0:	103c9e1e 	bne	r2,zero,200395c <__alt_mem_shared_ocm+0xfe00295c>
 20046e4:	d8c02017 	ldw	r3,128(sp)
 20046e8:	da000404 	addi	r8,sp,16
 20046ec:	003dc706 	br	2003e0c <__alt_mem_shared_ocm+0xfe002e0c>
 20046f0:	d8802917 	ldw	r2,164(sp)
 20046f4:	d8002785 	stb	zero,158(sp)
 20046f8:	103f0816 	blt	r2,zero,200431c <__alt_mem_shared_ocm+0xfe00331c>
 20046fc:	00ffdfc4 	movi	r3,-129
 2004700:	a584b03a 	or	r2,r20,r22
 2004704:	90e4703a 	and	r18,r18,r3
 2004708:	103c8126 	beq	r2,zero,2003910 <__alt_mem_shared_ocm+0xfe002910>
 200470c:	0039883a 	mov	fp,zero
 2004710:	003e7606 	br	20040ec <__alt_mem_shared_ocm+0xfe0030ec>
 2004714:	9080040c 	andi	r2,r18,16
 2004718:	10013d26 	beq	r2,zero,2004c10 <___svfprintf_internal_r+0x1648>
 200471c:	d9002d17 	ldw	r4,180(sp)
 2004720:	d9402917 	ldw	r5,164(sp)
 2004724:	d8002785 	stb	zero,158(sp)
 2004728:	20800104 	addi	r2,r4,4
 200472c:	25000017 	ldw	r20,0(r4)
 2004730:	002d883a 	mov	r22,zero
 2004734:	28013f16 	blt	r5,zero,2004c34 <___svfprintf_internal_r+0x166c>
 2004738:	00ffdfc4 	movi	r3,-129
 200473c:	d8802d15 	stw	r2,180(sp)
 2004740:	90e4703a 	and	r18,r18,r3
 2004744:	a03d2b26 	beq	r20,zero,2003bf4 <__alt_mem_shared_ocm+0xfe002bf4>
 2004748:	0039883a 	mov	fp,zero
 200474c:	003d2e06 	br	2003c08 <__alt_mem_shared_ocm+0xfe002c08>
 2004750:	dc402617 	ldw	r17,152(sp)
 2004754:	0441830e 	bge	zero,r17,2004d64 <___svfprintf_internal_r+0x179c>
 2004758:	dc403217 	ldw	r17,200(sp)
 200475c:	d8803317 	ldw	r2,204(sp)
 2004760:	1440010e 	bge	r2,r17,2004768 <___svfprintf_internal_r+0x11a0>
 2004764:	1023883a 	mov	r17,r2
 2004768:	04400a0e 	bge	zero,r17,2004794 <___svfprintf_internal_r+0x11cc>
 200476c:	d8801f17 	ldw	r2,124(sp)
 2004770:	1c47883a 	add	r3,r3,r17
 2004774:	44000015 	stw	r16,0(r8)
 2004778:	10800044 	addi	r2,r2,1
 200477c:	44400115 	stw	r17,4(r8)
 2004780:	d8c02015 	stw	r3,128(sp)
 2004784:	d8801f15 	stw	r2,124(sp)
 2004788:	010001c4 	movi	r4,7
 200478c:	20827516 	blt	r4,r2,2005164 <___svfprintf_internal_r+0x1b9c>
 2004790:	42000204 	addi	r8,r8,8
 2004794:	88027b16 	blt	r17,zero,2005184 <___svfprintf_internal_r+0x1bbc>
 2004798:	d9003217 	ldw	r4,200(sp)
 200479c:	2463c83a 	sub	r17,r4,r17
 20047a0:	0440990e 	bge	zero,r17,2004a08 <___svfprintf_internal_r+0x1440>
 20047a4:	05800404 	movi	r22,16
 20047a8:	d8801f17 	ldw	r2,124(sp)
 20047ac:	b441530e 	bge	r22,r17,2004cfc <___svfprintf_internal_r+0x1734>
 20047b0:	010080b4 	movhi	r4,514
 20047b4:	21285284 	addi	r4,r4,-24246
 20047b8:	d9002b15 	stw	r4,172(sp)
 20047bc:	070001c4 	movi	fp,7
 20047c0:	dd002c17 	ldw	r20,176(sp)
 20047c4:	00000306 	br	20047d4 <___svfprintf_internal_r+0x120c>
 20047c8:	42000204 	addi	r8,r8,8
 20047cc:	8c7ffc04 	addi	r17,r17,-16
 20047d0:	b4414d0e 	bge	r22,r17,2004d08 <___svfprintf_internal_r+0x1740>
 20047d4:	18c00404 	addi	r3,r3,16
 20047d8:	10800044 	addi	r2,r2,1
 20047dc:	45400015 	stw	r21,0(r8)
 20047e0:	45800115 	stw	r22,4(r8)
 20047e4:	d8c02015 	stw	r3,128(sp)
 20047e8:	d8801f15 	stw	r2,124(sp)
 20047ec:	e0bff60e 	bge	fp,r2,20047c8 <__alt_mem_shared_ocm+0xfe0037c8>
 20047f0:	d9801e04 	addi	r6,sp,120
 20047f4:	a00b883a 	mov	r5,r20
 20047f8:	9809883a 	mov	r4,r19
 20047fc:	200f4180 	call	200f418 <__ssprint_r>
 2004800:	103c561e 	bne	r2,zero,200395c <__alt_mem_shared_ocm+0xfe00295c>
 2004804:	d8c02017 	ldw	r3,128(sp)
 2004808:	d8801f17 	ldw	r2,124(sp)
 200480c:	da000404 	addi	r8,sp,16
 2004810:	003fee06 	br	20047cc <__alt_mem_shared_ocm+0xfe0037cc>
 2004814:	d9402c17 	ldw	r5,176(sp)
 2004818:	d9801e04 	addi	r6,sp,120
 200481c:	9809883a 	mov	r4,r19
 2004820:	200f4180 	call	200f418 <__ssprint_r>
 2004824:	103c4d1e 	bne	r2,zero,200395c <__alt_mem_shared_ocm+0xfe00295c>
 2004828:	d8c02017 	ldw	r3,128(sp)
 200482c:	df002787 	ldb	fp,158(sp)
 2004830:	da000404 	addi	r8,sp,16
 2004834:	003d5a06 	br	2003da0 <__alt_mem_shared_ocm+0xfe002da0>
 2004838:	9080040c 	andi	r2,r18,16
 200483c:	10005c26 	beq	r2,zero,20049b0 <___svfprintf_internal_r+0x13e8>
 2004840:	d9402d17 	ldw	r5,180(sp)
 2004844:	d8c02917 	ldw	r3,164(sp)
 2004848:	d8002785 	stb	zero,158(sp)
 200484c:	28800104 	addi	r2,r5,4
 2004850:	2d000017 	ldw	r20,0(r5)
 2004854:	002d883a 	mov	r22,zero
 2004858:	18005e16 	blt	r3,zero,20049d4 <___svfprintf_internal_r+0x140c>
 200485c:	00ffdfc4 	movi	r3,-129
 2004860:	d8802d15 	stw	r2,180(sp)
 2004864:	90e4703a 	and	r18,r18,r3
 2004868:	0039883a 	mov	fp,zero
 200486c:	a03dfe26 	beq	r20,zero,2004068 <__alt_mem_shared_ocm+0xfe003068>
 2004870:	00800244 	movi	r2,9
 2004874:	153cb336 	bltu	r2,r20,2003b44 <__alt_mem_shared_ocm+0xfe002b44>
 2004878:	a5000c04 	addi	r20,r20,48
 200487c:	dc001dc4 	addi	r16,sp,119
 2004880:	dd001dc5 	stb	r20,119(sp)
 2004884:	d8c02817 	ldw	r3,160(sp)
 2004888:	1c07c83a 	sub	r3,r3,r16
 200488c:	d8c02e15 	stw	r3,184(sp)
 2004890:	003cf506 	br	2003c68 <__alt_mem_shared_ocm+0xfe002c68>
 2004894:	d8803317 	ldw	r2,204(sp)
 2004898:	143fffc4 	addi	r16,r2,-1
 200489c:	043f560e 	bge	zero,r16,20045f8 <__alt_mem_shared_ocm+0xfe0035f8>
 20048a0:	07000404 	movi	fp,16
 20048a4:	e403530e 	bge	fp,r16,20055f4 <___svfprintf_internal_r+0x202c>
 20048a8:	014080b4 	movhi	r5,514
 20048ac:	29685284 	addi	r5,r5,-24246
 20048b0:	d9402b15 	stw	r5,172(sp)
 20048b4:	01c001c4 	movi	r7,7
 20048b8:	dd002c17 	ldw	r20,176(sp)
 20048bc:	00000306 	br	20048cc <___svfprintf_internal_r+0x1304>
 20048c0:	843ffc04 	addi	r16,r16,-16
 20048c4:	b5800204 	addi	r22,r22,8
 20048c8:	e400130e 	bge	fp,r16,2004918 <___svfprintf_internal_r+0x1350>
 20048cc:	18c00404 	addi	r3,r3,16
 20048d0:	8c400044 	addi	r17,r17,1
 20048d4:	b5400015 	stw	r21,0(r22)
 20048d8:	b7000115 	stw	fp,4(r22)
 20048dc:	d8c02015 	stw	r3,128(sp)
 20048e0:	dc401f15 	stw	r17,124(sp)
 20048e4:	3c7ff60e 	bge	r7,r17,20048c0 <__alt_mem_shared_ocm+0xfe0038c0>
 20048e8:	d9801e04 	addi	r6,sp,120
 20048ec:	a00b883a 	mov	r5,r20
 20048f0:	9809883a 	mov	r4,r19
 20048f4:	d9c03d15 	stw	r7,244(sp)
 20048f8:	200f4180 	call	200f418 <__ssprint_r>
 20048fc:	d9c03d17 	ldw	r7,244(sp)
 2004900:	103c161e 	bne	r2,zero,200395c <__alt_mem_shared_ocm+0xfe00295c>
 2004904:	843ffc04 	addi	r16,r16,-16
 2004908:	d8c02017 	ldw	r3,128(sp)
 200490c:	dc401f17 	ldw	r17,124(sp)
 2004910:	dd800404 	addi	r22,sp,16
 2004914:	e43fed16 	blt	fp,r16,20048cc <__alt_mem_shared_ocm+0xfe0038cc>
 2004918:	d8802b17 	ldw	r2,172(sp)
 200491c:	1c07883a 	add	r3,r3,r16
 2004920:	8c400044 	addi	r17,r17,1
 2004924:	b0800015 	stw	r2,0(r22)
 2004928:	b4000115 	stw	r16,4(r22)
 200492c:	d8c02015 	stw	r3,128(sp)
 2004930:	dc401f15 	stw	r17,124(sp)
 2004934:	008001c4 	movi	r2,7
 2004938:	147f2e0e 	bge	r2,r17,20045f4 <__alt_mem_shared_ocm+0xfe0035f4>
 200493c:	d9402c17 	ldw	r5,176(sp)
 2004940:	d9801e04 	addi	r6,sp,120
 2004944:	9809883a 	mov	r4,r19
 2004948:	200f4180 	call	200f418 <__ssprint_r>
 200494c:	103c031e 	bne	r2,zero,200395c <__alt_mem_shared_ocm+0xfe00295c>
 2004950:	d8c02017 	ldw	r3,128(sp)
 2004954:	dc401f17 	ldw	r17,124(sp)
 2004958:	dd800404 	addi	r22,sp,16
 200495c:	003f2606 	br	20045f8 <__alt_mem_shared_ocm+0xfe0035f8>
 2004960:	9080040c 	andi	r2,r18,16
 2004964:	1000c326 	beq	r2,zero,2004c74 <___svfprintf_internal_r+0x16ac>
 2004968:	d8802d17 	ldw	r2,180(sp)
 200496c:	15000017 	ldw	r20,0(r2)
 2004970:	10800104 	addi	r2,r2,4
 2004974:	d8802d15 	stw	r2,180(sp)
 2004978:	a02dd7fa 	srai	r22,r20,31
 200497c:	b005883a 	mov	r2,r22
 2004980:	103c680e 	bge	r2,zero,2003b24 <__alt_mem_shared_ocm+0xfe002b24>
 2004984:	0529c83a 	sub	r20,zero,r20
 2004988:	a004c03a 	cmpne	r2,r20,zero
 200498c:	05adc83a 	sub	r22,zero,r22
 2004990:	b0adc83a 	sub	r22,r22,r2
 2004994:	d8802917 	ldw	r2,164(sp)
 2004998:	07000b44 	movi	fp,45
 200499c:	df002785 	stb	fp,158(sp)
 20049a0:	10022e16 	blt	r2,zero,200525c <___svfprintf_internal_r+0x1c94>
 20049a4:	00bfdfc4 	movi	r2,-129
 20049a8:	90a4703a 	and	r18,r18,r2
 20049ac:	003c6406 	br	2003b40 <__alt_mem_shared_ocm+0xfe002b40>
 20049b0:	9080100c 	andi	r2,r18,64
 20049b4:	d8002785 	stb	zero,158(sp)
 20049b8:	10012526 	beq	r2,zero,2004e50 <___svfprintf_internal_r+0x1888>
 20049bc:	d9002d17 	ldw	r4,180(sp)
 20049c0:	d9402917 	ldw	r5,164(sp)
 20049c4:	002d883a 	mov	r22,zero
 20049c8:	20800104 	addi	r2,r4,4
 20049cc:	2500000b 	ldhu	r20,0(r4)
 20049d0:	283fa20e 	bge	r5,zero,200485c <__alt_mem_shared_ocm+0xfe00385c>
 20049d4:	d8802d15 	stw	r2,180(sp)
 20049d8:	0039883a 	mov	fp,zero
 20049dc:	a584b03a 	or	r2,r20,r22
 20049e0:	103c571e 	bne	r2,zero,2003b40 <__alt_mem_shared_ocm+0xfe002b40>
 20049e4:	00800044 	movi	r2,1
 20049e8:	003e5006 	br	200432c <__alt_mem_shared_ocm+0xfe00332c>
 20049ec:	d9402c17 	ldw	r5,176(sp)
 20049f0:	d9801e04 	addi	r6,sp,120
 20049f4:	9809883a 	mov	r4,r19
 20049f8:	200f4180 	call	200f418 <__ssprint_r>
 20049fc:	103bd71e 	bne	r2,zero,200395c <__alt_mem_shared_ocm+0xfe00295c>
 2004a00:	d8c02017 	ldw	r3,128(sp)
 2004a04:	da000404 	addi	r8,sp,16
 2004a08:	d9003217 	ldw	r4,200(sp)
 2004a0c:	d8802617 	ldw	r2,152(sp)
 2004a10:	d9403317 	ldw	r5,204(sp)
 2004a14:	8123883a 	add	r17,r16,r4
 2004a18:	11400216 	blt	r2,r5,2004a24 <___svfprintf_internal_r+0x145c>
 2004a1c:	9100004c 	andi	r4,r18,1
 2004a20:	20000d26 	beq	r4,zero,2004a58 <___svfprintf_internal_r+0x1490>
 2004a24:	d9003817 	ldw	r4,224(sp)
 2004a28:	d9403417 	ldw	r5,208(sp)
 2004a2c:	1907883a 	add	r3,r3,r4
 2004a30:	d9001f17 	ldw	r4,124(sp)
 2004a34:	41400015 	stw	r5,0(r8)
 2004a38:	d9403817 	ldw	r5,224(sp)
 2004a3c:	21000044 	addi	r4,r4,1
 2004a40:	d8c02015 	stw	r3,128(sp)
 2004a44:	41400115 	stw	r5,4(r8)
 2004a48:	d9001f15 	stw	r4,124(sp)
 2004a4c:	014001c4 	movi	r5,7
 2004a50:	2901dc16 	blt	r5,r4,20051c4 <___svfprintf_internal_r+0x1bfc>
 2004a54:	42000204 	addi	r8,r8,8
 2004a58:	d9003317 	ldw	r4,204(sp)
 2004a5c:	8121883a 	add	r16,r16,r4
 2004a60:	2085c83a 	sub	r2,r4,r2
 2004a64:	8461c83a 	sub	r16,r16,r17
 2004a68:	1400010e 	bge	r2,r16,2004a70 <___svfprintf_internal_r+0x14a8>
 2004a6c:	1021883a 	mov	r16,r2
 2004a70:	04000a0e 	bge	zero,r16,2004a9c <___svfprintf_internal_r+0x14d4>
 2004a74:	d9001f17 	ldw	r4,124(sp)
 2004a78:	1c07883a 	add	r3,r3,r16
 2004a7c:	44400015 	stw	r17,0(r8)
 2004a80:	21000044 	addi	r4,r4,1
 2004a84:	44000115 	stw	r16,4(r8)
 2004a88:	d8c02015 	stw	r3,128(sp)
 2004a8c:	d9001f15 	stw	r4,124(sp)
 2004a90:	014001c4 	movi	r5,7
 2004a94:	2901e616 	blt	r5,r4,2005230 <___svfprintf_internal_r+0x1c68>
 2004a98:	42000204 	addi	r8,r8,8
 2004a9c:	8001f616 	blt	r16,zero,2005278 <___svfprintf_internal_r+0x1cb0>
 2004aa0:	1421c83a 	sub	r16,r2,r16
 2004aa4:	043d1c0e 	bge	zero,r16,2003f18 <__alt_mem_shared_ocm+0xfe002f18>
 2004aa8:	04400404 	movi	r17,16
 2004aac:	d8801f17 	ldw	r2,124(sp)
 2004ab0:	8c3edd0e 	bge	r17,r16,2004628 <__alt_mem_shared_ocm+0xfe003628>
 2004ab4:	014080b4 	movhi	r5,514
 2004ab8:	29685284 	addi	r5,r5,-24246
 2004abc:	d9402b15 	stw	r5,172(sp)
 2004ac0:	058001c4 	movi	r22,7
 2004ac4:	dd002c17 	ldw	r20,176(sp)
 2004ac8:	00000306 	br	2004ad8 <___svfprintf_internal_r+0x1510>
 2004acc:	42000204 	addi	r8,r8,8
 2004ad0:	843ffc04 	addi	r16,r16,-16
 2004ad4:	8c3ed70e 	bge	r17,r16,2004634 <__alt_mem_shared_ocm+0xfe003634>
 2004ad8:	18c00404 	addi	r3,r3,16
 2004adc:	10800044 	addi	r2,r2,1
 2004ae0:	45400015 	stw	r21,0(r8)
 2004ae4:	44400115 	stw	r17,4(r8)
 2004ae8:	d8c02015 	stw	r3,128(sp)
 2004aec:	d8801f15 	stw	r2,124(sp)
 2004af0:	b0bff60e 	bge	r22,r2,2004acc <__alt_mem_shared_ocm+0xfe003acc>
 2004af4:	d9801e04 	addi	r6,sp,120
 2004af8:	a00b883a 	mov	r5,r20
 2004afc:	9809883a 	mov	r4,r19
 2004b00:	200f4180 	call	200f418 <__ssprint_r>
 2004b04:	103b951e 	bne	r2,zero,200395c <__alt_mem_shared_ocm+0xfe00295c>
 2004b08:	d8c02017 	ldw	r3,128(sp)
 2004b0c:	d8801f17 	ldw	r2,124(sp)
 2004b10:	da000404 	addi	r8,sp,16
 2004b14:	003fee06 	br	2004ad0 <__alt_mem_shared_ocm+0xfe003ad0>
 2004b18:	9088703a 	and	r4,r18,r2
 2004b1c:	203e8d1e 	bne	r4,zero,2004554 <__alt_mem_shared_ocm+0xfe003554>
 2004b20:	dc401f17 	ldw	r17,124(sp)
 2004b24:	40800115 	stw	r2,4(r8)
 2004b28:	44000015 	stw	r16,0(r8)
 2004b2c:	8c400044 	addi	r17,r17,1
 2004b30:	d8c02015 	stw	r3,128(sp)
 2004b34:	dc401f15 	stw	r17,124(sp)
 2004b38:	008001c4 	movi	r2,7
 2004b3c:	147f7f16 	blt	r2,r17,200493c <__alt_mem_shared_ocm+0xfe00393c>
 2004b40:	45800204 	addi	r22,r8,8
 2004b44:	003eac06 	br	20045f8 <__alt_mem_shared_ocm+0xfe0035f8>
 2004b48:	d9402c17 	ldw	r5,176(sp)
 2004b4c:	d9801e04 	addi	r6,sp,120
 2004b50:	9809883a 	mov	r4,r19
 2004b54:	200f4180 	call	200f418 <__ssprint_r>
 2004b58:	103b801e 	bne	r2,zero,200395c <__alt_mem_shared_ocm+0xfe00295c>
 2004b5c:	d8c02017 	ldw	r3,128(sp)
 2004b60:	dc401f17 	ldw	r17,124(sp)
 2004b64:	da000404 	addi	r8,sp,16
 2004b68:	003e8406 	br	200457c <__alt_mem_shared_ocm+0xfe00357c>
 2004b6c:	d9402c17 	ldw	r5,176(sp)
 2004b70:	d9801e04 	addi	r6,sp,120
 2004b74:	9809883a 	mov	r4,r19
 2004b78:	200f4180 	call	200f418 <__ssprint_r>
 2004b7c:	103b771e 	bne	r2,zero,200395c <__alt_mem_shared_ocm+0xfe00295c>
 2004b80:	d8c02017 	ldw	r3,128(sp)
 2004b84:	dc401f17 	ldw	r17,124(sp)
 2004b88:	dd800404 	addi	r22,sp,16
 2004b8c:	003e8606 	br	20045a8 <__alt_mem_shared_ocm+0xfe0035a8>
 2004b90:	0029883a 	mov	r20,zero
 2004b94:	a5000c04 	addi	r20,r20,48
 2004b98:	dc001dc4 	addi	r16,sp,119
 2004b9c:	dd001dc5 	stb	r20,119(sp)
 2004ba0:	003f3806 	br	2004884 <__alt_mem_shared_ocm+0xfe003884>
 2004ba4:	d9402c17 	ldw	r5,176(sp)
 2004ba8:	d9801e04 	addi	r6,sp,120
 2004bac:	9809883a 	mov	r4,r19
 2004bb0:	200f4180 	call	200f418 <__ssprint_r>
 2004bb4:	103b691e 	bne	r2,zero,200395c <__alt_mem_shared_ocm+0xfe00295c>
 2004bb8:	d8c02017 	ldw	r3,128(sp)
 2004bbc:	da000404 	addi	r8,sp,16
 2004bc0:	003c9506 	br	2003e18 <__alt_mem_shared_ocm+0xfe002e18>
 2004bc4:	d9003617 	ldw	r4,216(sp)
 2004bc8:	d9403717 	ldw	r5,220(sp)
 2004bcc:	da003e15 	stw	r8,248(sp)
 2004bd0:	200ced80 	call	200ced8 <__fpclassifyd>
 2004bd4:	da003e17 	ldw	r8,248(sp)
 2004bd8:	1000bd1e 	bne	r2,zero,2004ed0 <___svfprintf_internal_r+0x1908>
 2004bdc:	008011c4 	movi	r2,71
 2004be0:	14411e0e 	bge	r2,r17,200505c <___svfprintf_internal_r+0x1a94>
 2004be4:	040080b4 	movhi	r16,514
 2004be8:	84284504 	addi	r16,r16,-24300
 2004bec:	00c000c4 	movi	r3,3
 2004bf0:	00bfdfc4 	movi	r2,-129
 2004bf4:	d8c02a15 	stw	r3,168(sp)
 2004bf8:	90a4703a 	and	r18,r18,r2
 2004bfc:	df002783 	ldbu	fp,158(sp)
 2004c00:	d8c02e15 	stw	r3,184(sp)
 2004c04:	d8002915 	stw	zero,164(sp)
 2004c08:	d8003215 	stw	zero,200(sp)
 2004c0c:	003c1c06 	br	2003c80 <__alt_mem_shared_ocm+0xfe002c80>
 2004c10:	9080100c 	andi	r2,r18,64
 2004c14:	d8002785 	stb	zero,158(sp)
 2004c18:	10009426 	beq	r2,zero,2004e6c <___svfprintf_internal_r+0x18a4>
 2004c1c:	d8c02d17 	ldw	r3,180(sp)
 2004c20:	d9002917 	ldw	r4,164(sp)
 2004c24:	002d883a 	mov	r22,zero
 2004c28:	18800104 	addi	r2,r3,4
 2004c2c:	1d00000b 	ldhu	r20,0(r3)
 2004c30:	203ec10e 	bge	r4,zero,2004738 <__alt_mem_shared_ocm+0xfe003738>
 2004c34:	a586b03a 	or	r3,r20,r22
 2004c38:	d8802d15 	stw	r2,180(sp)
 2004c3c:	183ec21e 	bne	r3,zero,2004748 <__alt_mem_shared_ocm+0xfe003748>
 2004c40:	0039883a 	mov	fp,zero
 2004c44:	0005883a 	mov	r2,zero
 2004c48:	003db806 	br	200432c <__alt_mem_shared_ocm+0xfe00332c>
 2004c4c:	d8802d17 	ldw	r2,180(sp)
 2004c50:	d8c02d17 	ldw	r3,180(sp)
 2004c54:	d9002d17 	ldw	r4,180(sp)
 2004c58:	10800017 	ldw	r2,0(r2)
 2004c5c:	18c00117 	ldw	r3,4(r3)
 2004c60:	21000204 	addi	r4,r4,8
 2004c64:	d8803615 	stw	r2,216(sp)
 2004c68:	d8c03715 	stw	r3,220(sp)
 2004c6c:	d9002d15 	stw	r4,180(sp)
 2004c70:	003b8206 	br	2003a7c <__alt_mem_shared_ocm+0xfe002a7c>
 2004c74:	9080100c 	andi	r2,r18,64
 2004c78:	10010726 	beq	r2,zero,2005098 <___svfprintf_internal_r+0x1ad0>
 2004c7c:	d8c02d17 	ldw	r3,180(sp)
 2004c80:	1d00000f 	ldh	r20,0(r3)
 2004c84:	18c00104 	addi	r3,r3,4
 2004c88:	d8c02d15 	stw	r3,180(sp)
 2004c8c:	a02dd7fa 	srai	r22,r20,31
 2004c90:	b005883a 	mov	r2,r22
 2004c94:	003ba206 	br	2003b20 <__alt_mem_shared_ocm+0xfe002b20>
 2004c98:	9080100c 	andi	r2,r18,64
 2004c9c:	10010526 	beq	r2,zero,20050b4 <___svfprintf_internal_r+0x1aec>
 2004ca0:	d9002d17 	ldw	r4,180(sp)
 2004ca4:	002d883a 	mov	r22,zero
 2004ca8:	2500000b 	ldhu	r20,0(r4)
 2004cac:	21000104 	addi	r4,r4,4
 2004cb0:	d9002d15 	stw	r4,180(sp)
 2004cb4:	003cfe06 	br	20040b0 <__alt_mem_shared_ocm+0xfe0030b0>
 2004cb8:	bc400007 	ldb	r17,0(r23)
 2004cbc:	003a9606 	br	2003718 <__alt_mem_shared_ocm+0xfe002718>
 2004cc0:	9080040c 	andi	r2,r18,16
 2004cc4:	10010126 	beq	r2,zero,20050cc <___svfprintf_internal_r+0x1b04>
 2004cc8:	d9402d17 	ldw	r5,180(sp)
 2004ccc:	d8c02f17 	ldw	r3,188(sp)
 2004cd0:	28800017 	ldw	r2,0(r5)
 2004cd4:	29400104 	addi	r5,r5,4
 2004cd8:	d9402d15 	stw	r5,180(sp)
 2004cdc:	10c00015 	stw	r3,0(r2)
 2004ce0:	003a6406 	br	2003674 <__alt_mem_shared_ocm+0xfe002674>
 2004ce4:	d9002917 	ldw	r4,164(sp)
 2004ce8:	d8002785 	stb	zero,158(sp)
 2004cec:	203d8d16 	blt	r4,zero,2004324 <__alt_mem_shared_ocm+0xfe003324>
 2004cf0:	00bfdfc4 	movi	r2,-129
 2004cf4:	90a4703a 	and	r18,r18,r2
 2004cf8:	003b0506 	br	2003910 <__alt_mem_shared_ocm+0xfe002910>
 2004cfc:	014080b4 	movhi	r5,514
 2004d00:	29685284 	addi	r5,r5,-24246
 2004d04:	d9402b15 	stw	r5,172(sp)
 2004d08:	d9402b17 	ldw	r5,172(sp)
 2004d0c:	1c47883a 	add	r3,r3,r17
 2004d10:	10800044 	addi	r2,r2,1
 2004d14:	41400015 	stw	r5,0(r8)
 2004d18:	44400115 	stw	r17,4(r8)
 2004d1c:	d8c02015 	stw	r3,128(sp)
 2004d20:	d8801f15 	stw	r2,124(sp)
 2004d24:	010001c4 	movi	r4,7
 2004d28:	20bf3016 	blt	r4,r2,20049ec <__alt_mem_shared_ocm+0xfe0039ec>
 2004d2c:	42000204 	addi	r8,r8,8
 2004d30:	003f3506 	br	2004a08 <__alt_mem_shared_ocm+0xfe003a08>
 2004d34:	010080b4 	movhi	r4,514
 2004d38:	21285284 	addi	r4,r4,-24246
 2004d3c:	d9002b15 	stw	r4,172(sp)
 2004d40:	003c5e06 	br	2003ebc <__alt_mem_shared_ocm+0xfe002ebc>
 2004d44:	d9402c17 	ldw	r5,176(sp)
 2004d48:	d9801e04 	addi	r6,sp,120
 2004d4c:	9809883a 	mov	r4,r19
 2004d50:	200f4180 	call	200f418 <__ssprint_r>
 2004d54:	103b011e 	bne	r2,zero,200395c <__alt_mem_shared_ocm+0xfe00295c>
 2004d58:	d8c02017 	ldw	r3,128(sp)
 2004d5c:	da000404 	addi	r8,sp,16
 2004d60:	003d9306 	br	20043b0 <__alt_mem_shared_ocm+0xfe0033b0>
 2004d64:	d8801f17 	ldw	r2,124(sp)
 2004d68:	014080b4 	movhi	r5,514
 2004d6c:	01000044 	movi	r4,1
 2004d70:	18c00044 	addi	r3,r3,1
 2004d74:	10800044 	addi	r2,r2,1
 2004d78:	29685204 	addi	r5,r5,-24248
 2004d7c:	41000115 	stw	r4,4(r8)
 2004d80:	41400015 	stw	r5,0(r8)
 2004d84:	d8c02015 	stw	r3,128(sp)
 2004d88:	d8801f15 	stw	r2,124(sp)
 2004d8c:	010001c4 	movi	r4,7
 2004d90:	2080b516 	blt	r4,r2,2005068 <___svfprintf_internal_r+0x1aa0>
 2004d94:	42000204 	addi	r8,r8,8
 2004d98:	8800041e 	bne	r17,zero,2004dac <___svfprintf_internal_r+0x17e4>
 2004d9c:	d8803317 	ldw	r2,204(sp)
 2004da0:	1000021e 	bne	r2,zero,2004dac <___svfprintf_internal_r+0x17e4>
 2004da4:	9080004c 	andi	r2,r18,1
 2004da8:	103c5b26 	beq	r2,zero,2003f18 <__alt_mem_shared_ocm+0xfe002f18>
 2004dac:	d9003817 	ldw	r4,224(sp)
 2004db0:	d8801f17 	ldw	r2,124(sp)
 2004db4:	d9403417 	ldw	r5,208(sp)
 2004db8:	20c7883a 	add	r3,r4,r3
 2004dbc:	10800044 	addi	r2,r2,1
 2004dc0:	41000115 	stw	r4,4(r8)
 2004dc4:	41400015 	stw	r5,0(r8)
 2004dc8:	d8c02015 	stw	r3,128(sp)
 2004dcc:	d8801f15 	stw	r2,124(sp)
 2004dd0:	010001c4 	movi	r4,7
 2004dd4:	20818016 	blt	r4,r2,20053d8 <___svfprintf_internal_r+0x1e10>
 2004dd8:	42000204 	addi	r8,r8,8
 2004ddc:	0463c83a 	sub	r17,zero,r17
 2004de0:	0440cb0e 	bge	zero,r17,2005110 <___svfprintf_internal_r+0x1b48>
 2004de4:	05800404 	movi	r22,16
 2004de8:	b440e80e 	bge	r22,r17,200518c <___svfprintf_internal_r+0x1bc4>
 2004dec:	014080b4 	movhi	r5,514
 2004df0:	29685284 	addi	r5,r5,-24246
 2004df4:	d9402b15 	stw	r5,172(sp)
 2004df8:	070001c4 	movi	fp,7
 2004dfc:	dd002c17 	ldw	r20,176(sp)
 2004e00:	00000306 	br	2004e10 <___svfprintf_internal_r+0x1848>
 2004e04:	42000204 	addi	r8,r8,8
 2004e08:	8c7ffc04 	addi	r17,r17,-16
 2004e0c:	b440e20e 	bge	r22,r17,2005198 <___svfprintf_internal_r+0x1bd0>
 2004e10:	18c00404 	addi	r3,r3,16
 2004e14:	10800044 	addi	r2,r2,1
 2004e18:	45400015 	stw	r21,0(r8)
 2004e1c:	45800115 	stw	r22,4(r8)
 2004e20:	d8c02015 	stw	r3,128(sp)
 2004e24:	d8801f15 	stw	r2,124(sp)
 2004e28:	e0bff60e 	bge	fp,r2,2004e04 <__alt_mem_shared_ocm+0xfe003e04>
 2004e2c:	d9801e04 	addi	r6,sp,120
 2004e30:	a00b883a 	mov	r5,r20
 2004e34:	9809883a 	mov	r4,r19
 2004e38:	200f4180 	call	200f418 <__ssprint_r>
 2004e3c:	103ac71e 	bne	r2,zero,200395c <__alt_mem_shared_ocm+0xfe00295c>
 2004e40:	d8c02017 	ldw	r3,128(sp)
 2004e44:	d8801f17 	ldw	r2,124(sp)
 2004e48:	da000404 	addi	r8,sp,16
 2004e4c:	003fee06 	br	2004e08 <__alt_mem_shared_ocm+0xfe003e08>
 2004e50:	d8c02d17 	ldw	r3,180(sp)
 2004e54:	d9002917 	ldw	r4,164(sp)
 2004e58:	002d883a 	mov	r22,zero
 2004e5c:	18800104 	addi	r2,r3,4
 2004e60:	1d000017 	ldw	r20,0(r3)
 2004e64:	203e7d0e 	bge	r4,zero,200485c <__alt_mem_shared_ocm+0xfe00385c>
 2004e68:	003eda06 	br	20049d4 <__alt_mem_shared_ocm+0xfe0039d4>
 2004e6c:	d9402d17 	ldw	r5,180(sp)
 2004e70:	d8c02917 	ldw	r3,164(sp)
 2004e74:	002d883a 	mov	r22,zero
 2004e78:	28800104 	addi	r2,r5,4
 2004e7c:	2d000017 	ldw	r20,0(r5)
 2004e80:	183e2d0e 	bge	r3,zero,2004738 <__alt_mem_shared_ocm+0xfe003738>
 2004e84:	003f6b06 	br	2004c34 <__alt_mem_shared_ocm+0xfe003c34>
 2004e88:	d8c02d15 	stw	r3,180(sp)
 2004e8c:	0039883a 	mov	fp,zero
 2004e90:	003ed206 	br	20049dc <__alt_mem_shared_ocm+0xfe0039dc>
 2004e94:	bc400043 	ldbu	r17,1(r23)
 2004e98:	94800814 	ori	r18,r18,32
 2004e9c:	bdc00044 	addi	r23,r23,1
 2004ea0:	8c403fcc 	andi	r17,r17,255
 2004ea4:	8c40201c 	xori	r17,r17,128
 2004ea8:	8c7fe004 	addi	r17,r17,-128
 2004eac:	003a1a06 	br	2003718 <__alt_mem_shared_ocm+0xfe002718>
 2004eb0:	d9402c17 	ldw	r5,176(sp)
 2004eb4:	d9801e04 	addi	r6,sp,120
 2004eb8:	9809883a 	mov	r4,r19
 2004ebc:	200f4180 	call	200f418 <__ssprint_r>
 2004ec0:	103aa61e 	bne	r2,zero,200395c <__alt_mem_shared_ocm+0xfe00295c>
 2004ec4:	d8c02017 	ldw	r3,128(sp)
 2004ec8:	da000404 	addi	r8,sp,16
 2004ecc:	003d4a06 	br	20043f8 <__alt_mem_shared_ocm+0xfe0033f8>
 2004ed0:	d9002917 	ldw	r4,164(sp)
 2004ed4:	05bff7c4 	movi	r22,-33
 2004ed8:	00bfffc4 	movi	r2,-1
 2004edc:	8dac703a 	and	r22,r17,r22
 2004ee0:	20806a26 	beq	r4,r2,200508c <___svfprintf_internal_r+0x1ac4>
 2004ee4:	008011c4 	movi	r2,71
 2004ee8:	b0813726 	beq	r22,r2,20053c8 <___svfprintf_internal_r+0x1e00>
 2004eec:	d9003717 	ldw	r4,220(sp)
 2004ef0:	90c04014 	ori	r3,r18,256
 2004ef4:	d8c02b15 	stw	r3,172(sp)
 2004ef8:	20015d16 	blt	r4,zero,2005470 <___svfprintf_internal_r+0x1ea8>
 2004efc:	dd003717 	ldw	r20,220(sp)
 2004f00:	d8002a05 	stb	zero,168(sp)
 2004f04:	00801984 	movi	r2,102
 2004f08:	88814026 	beq	r17,r2,200540c <___svfprintf_internal_r+0x1e44>
 2004f0c:	00801184 	movi	r2,70
 2004f10:	88817126 	beq	r17,r2,20054d8 <___svfprintf_internal_r+0x1f10>
 2004f14:	00801144 	movi	r2,69
 2004f18:	b0816226 	beq	r22,r2,20054a4 <___svfprintf_internal_r+0x1edc>
 2004f1c:	d8c02917 	ldw	r3,164(sp)
 2004f20:	d8802104 	addi	r2,sp,132
 2004f24:	d8800315 	stw	r2,12(sp)
 2004f28:	d9403617 	ldw	r5,216(sp)
 2004f2c:	d8802504 	addi	r2,sp,148
 2004f30:	d8800215 	stw	r2,8(sp)
 2004f34:	d8802604 	addi	r2,sp,152
 2004f38:	d8c00015 	stw	r3,0(sp)
 2004f3c:	d8800115 	stw	r2,4(sp)
 2004f40:	01c00084 	movi	r7,2
 2004f44:	a00d883a 	mov	r6,r20
 2004f48:	9809883a 	mov	r4,r19
 2004f4c:	d8c03d15 	stw	r3,244(sp)
 2004f50:	da003e15 	stw	r8,248(sp)
 2004f54:	20097040 	call	2009704 <_dtoa_r>
 2004f58:	1021883a 	mov	r16,r2
 2004f5c:	008019c4 	movi	r2,103
 2004f60:	d8c03d17 	ldw	r3,244(sp)
 2004f64:	da003e17 	ldw	r8,248(sp)
 2004f68:	8880e726 	beq	r17,r2,2005308 <___svfprintf_internal_r+0x1d40>
 2004f6c:	008011c4 	movi	r2,71
 2004f70:	8880d426 	beq	r17,r2,20052c4 <___svfprintf_internal_r+0x1cfc>
 2004f74:	80f9883a 	add	fp,r16,r3
 2004f78:	d9003617 	ldw	r4,216(sp)
 2004f7c:	000d883a 	mov	r6,zero
 2004f80:	000f883a 	mov	r7,zero
 2004f84:	a00b883a 	mov	r5,r20
 2004f88:	da003e15 	stw	r8,248(sp)
 2004f8c:	201541c0 	call	201541c <__eqdf2>
 2004f90:	da003e17 	ldw	r8,248(sp)
 2004f94:	1000e426 	beq	r2,zero,2005328 <___svfprintf_internal_r+0x1d60>
 2004f98:	d8802117 	ldw	r2,132(sp)
 2004f9c:	1700062e 	bgeu	r2,fp,2004fb8 <___svfprintf_internal_r+0x19f0>
 2004fa0:	01000c04 	movi	r4,48
 2004fa4:	10c00044 	addi	r3,r2,1
 2004fa8:	d8c02115 	stw	r3,132(sp)
 2004fac:	11000005 	stb	r4,0(r2)
 2004fb0:	d8802117 	ldw	r2,132(sp)
 2004fb4:	173ffb36 	bltu	r2,fp,2004fa4 <__alt_mem_shared_ocm+0xfe003fa4>
 2004fb8:	1405c83a 	sub	r2,r2,r16
 2004fbc:	d8803315 	stw	r2,204(sp)
 2004fc0:	008011c4 	movi	r2,71
 2004fc4:	b080c526 	beq	r22,r2,20052dc <___svfprintf_internal_r+0x1d14>
 2004fc8:	00801944 	movi	r2,101
 2004fcc:	1441d90e 	bge	r2,r17,2005734 <___svfprintf_internal_r+0x216c>
 2004fd0:	d8c02617 	ldw	r3,152(sp)
 2004fd4:	00801984 	movi	r2,102
 2004fd8:	d8c03215 	stw	r3,200(sp)
 2004fdc:	88813426 	beq	r17,r2,20054b0 <___svfprintf_internal_r+0x1ee8>
 2004fe0:	d8c03217 	ldw	r3,200(sp)
 2004fe4:	d9003317 	ldw	r4,204(sp)
 2004fe8:	19012516 	blt	r3,r4,2005480 <___svfprintf_internal_r+0x1eb8>
 2004fec:	9480004c 	andi	r18,r18,1
 2004ff0:	9001841e 	bne	r18,zero,2005604 <___svfprintf_internal_r+0x203c>
 2004ff4:	1805883a 	mov	r2,r3
 2004ff8:	1801cc16 	blt	r3,zero,200572c <___svfprintf_internal_r+0x2164>
 2004ffc:	d8c03217 	ldw	r3,200(sp)
 2005000:	044019c4 	movi	r17,103
 2005004:	d8c02e15 	stw	r3,184(sp)
 2005008:	df002a07 	ldb	fp,168(sp)
 200500c:	e000a61e 	bne	fp,zero,20052a8 <___svfprintf_internal_r+0x1ce0>
 2005010:	df002783 	ldbu	fp,158(sp)
 2005014:	d8802a15 	stw	r2,168(sp)
 2005018:	dc802b17 	ldw	r18,172(sp)
 200501c:	d8002915 	stw	zero,164(sp)
 2005020:	003b1706 	br	2003c80 <__alt_mem_shared_ocm+0xfe002c80>
 2005024:	040080b4 	movhi	r16,514
 2005028:	84284204 	addi	r16,r16,-24312
 200502c:	003aa606 	br	2003ac8 <__alt_mem_shared_ocm+0xfe002ac8>
 2005030:	d9003917 	ldw	r4,228(sp)
 2005034:	04001004 	movi	r16,64
 2005038:	800b883a 	mov	r5,r16
 200503c:	200236c0 	call	200236c <_malloc_r>
 2005040:	d9002c17 	ldw	r4,176(sp)
 2005044:	20800015 	stw	r2,0(r4)
 2005048:	20800415 	stw	r2,16(r4)
 200504c:	1001cb26 	beq	r2,zero,200577c <___svfprintf_internal_r+0x21b4>
 2005050:	d8802c17 	ldw	r2,176(sp)
 2005054:	14000515 	stw	r16,20(r2)
 2005058:	00397606 	br	2003634 <__alt_mem_shared_ocm+0xfe002634>
 200505c:	040080b4 	movhi	r16,514
 2005060:	84284404 	addi	r16,r16,-24304
 2005064:	003ee106 	br	2004bec <__alt_mem_shared_ocm+0xfe003bec>
 2005068:	d9402c17 	ldw	r5,176(sp)
 200506c:	d9801e04 	addi	r6,sp,120
 2005070:	9809883a 	mov	r4,r19
 2005074:	200f4180 	call	200f418 <__ssprint_r>
 2005078:	103a381e 	bne	r2,zero,200395c <__alt_mem_shared_ocm+0xfe00295c>
 200507c:	dc402617 	ldw	r17,152(sp)
 2005080:	d8c02017 	ldw	r3,128(sp)
 2005084:	da000404 	addi	r8,sp,16
 2005088:	003f4306 	br	2004d98 <__alt_mem_shared_ocm+0xfe003d98>
 200508c:	01400184 	movi	r5,6
 2005090:	d9402915 	stw	r5,164(sp)
 2005094:	003f9506 	br	2004eec <__alt_mem_shared_ocm+0xfe003eec>
 2005098:	d9002d17 	ldw	r4,180(sp)
 200509c:	25000017 	ldw	r20,0(r4)
 20050a0:	21000104 	addi	r4,r4,4
 20050a4:	d9002d15 	stw	r4,180(sp)
 20050a8:	a02dd7fa 	srai	r22,r20,31
 20050ac:	b005883a 	mov	r2,r22
 20050b0:	003a9b06 	br	2003b20 <__alt_mem_shared_ocm+0xfe002b20>
 20050b4:	d9402d17 	ldw	r5,180(sp)
 20050b8:	002d883a 	mov	r22,zero
 20050bc:	2d000017 	ldw	r20,0(r5)
 20050c0:	29400104 	addi	r5,r5,4
 20050c4:	d9402d15 	stw	r5,180(sp)
 20050c8:	003bf906 	br	20040b0 <__alt_mem_shared_ocm+0xfe0030b0>
 20050cc:	9480100c 	andi	r18,r18,64
 20050d0:	90006e26 	beq	r18,zero,200528c <___svfprintf_internal_r+0x1cc4>
 20050d4:	d9002d17 	ldw	r4,180(sp)
 20050d8:	d9402f17 	ldw	r5,188(sp)
 20050dc:	20800017 	ldw	r2,0(r4)
 20050e0:	21000104 	addi	r4,r4,4
 20050e4:	d9002d15 	stw	r4,180(sp)
 20050e8:	1140000d 	sth	r5,0(r2)
 20050ec:	00396106 	br	2003674 <__alt_mem_shared_ocm+0xfe002674>
 20050f0:	d9402c17 	ldw	r5,176(sp)
 20050f4:	d9801e04 	addi	r6,sp,120
 20050f8:	9809883a 	mov	r4,r19
 20050fc:	200f4180 	call	200f418 <__ssprint_r>
 2005100:	103a161e 	bne	r2,zero,200395c <__alt_mem_shared_ocm+0xfe00295c>
 2005104:	d8c02017 	ldw	r3,128(sp)
 2005108:	d8801f17 	ldw	r2,124(sp)
 200510c:	da000404 	addi	r8,sp,16
 2005110:	d9403317 	ldw	r5,204(sp)
 2005114:	10800044 	addi	r2,r2,1
 2005118:	44000015 	stw	r16,0(r8)
 200511c:	28c7883a 	add	r3,r5,r3
 2005120:	003b7706 	br	2003f00 <__alt_mem_shared_ocm+0xfe002f00>
 2005124:	8009883a 	mov	r4,r16
 2005128:	da003e15 	stw	r8,248(sp)
 200512c:	20035300 	call	2003530 <strlen>
 2005130:	d8802e15 	stw	r2,184(sp)
 2005134:	da003e17 	ldw	r8,248(sp)
 2005138:	103c280e 	bge	r2,zero,20041dc <__alt_mem_shared_ocm+0xfe0031dc>
 200513c:	0005883a 	mov	r2,zero
 2005140:	003c2606 	br	20041dc <__alt_mem_shared_ocm+0xfe0031dc>
 2005144:	00bfffc4 	movi	r2,-1
 2005148:	003a0906 	br	2003970 <__alt_mem_shared_ocm+0xfe002970>
 200514c:	010080b4 	movhi	r4,514
 2005150:	21285684 	addi	r4,r4,-24230
 2005154:	d9003515 	stw	r4,212(sp)
 2005158:	003b0606 	br	2003d74 <__alt_mem_shared_ocm+0xfe002d74>
 200515c:	013fffc4 	movi	r4,-1
 2005160:	003a2706 	br	2003a00 <__alt_mem_shared_ocm+0xfe002a00>
 2005164:	d9402c17 	ldw	r5,176(sp)
 2005168:	d9801e04 	addi	r6,sp,120
